
arch/arm64/boot/vmimage:     file format elf64-littleaarch64
arch/arm64/boot/vmimage
architecture: aarch64, flags 0x00000112:
EXEC_P, HAS_SYMS, D_PAGED
start address 0x0000000002000000

Program Header:
    LOAD off    0x0000000000010000 vaddr 0x0000000002000000 paddr 0x0000000002000000 align 2**16
         filesz 0x000000000000dec0 memsz 0x000000000000dec0 flags rwx
   STACK off    0x0000000000000000 vaddr 0x0000000000000000 paddr 0x0000000000000000 align 2**4
         filesz 0x0000000000000000 memsz 0x0000000000000000 flags rw-
private flags = 0:

Sections:
Idx Name          Size      VMA               LMA               File off  Algn
  0 .text         000000f0  0000000002000000  0000000002000000  00010000  2**3
                  CONTENTS, ALLOC, LOAD, READONLY, CODE
  1 .text_rest    00004a28  0000000002000800  0000000002000800  00010800  2**11
                  CONTENTS, ALLOC, LOAD, READONLY, CODE
  2 .rodata       00001c1a  0000000002005228  0000000002005228  00015228  2**3
                  CONTENTS, ALLOC, LOAD, READONLY, DATA
  3 .hash         00000018  0000000002006e48  0000000002006e48  00016e48  2**3
                  CONTENTS, ALLOC, LOAD, READONLY, DATA
  4 .data         000000d1  0000000002006e60  0000000002006e60  00016e60  2**3
                  CONTENTS, ALLOC, LOAD, DATA
  5 .got          00000008  0000000002006f38  0000000002006f38  00016f38  2**3
                  CONTENTS, ALLOC, LOAD, DATA
  6 .got.plt      00000018  0000000002006f40  0000000002006f40  00016f40  2**3
                  CONTENTS, ALLOC, LOAD, DATA
  7 .rock_list    00000118  0000000002006f58  0000000002006f58  00016f58  2**2
                  CONTENTS, ALLOC, LOAD, DATA
  8 .rela.dyn     00001170  0000000002007070  0000000002007070  00017070  2**3
                  CONTENTS, ALLOC, LOAD, READONLY, DATA
  9 .bss_start    00000000  00000000020081e0  00000000020081e0  000181e0  2**3
                  CONTENTS, ALLOC, LOAD, DATA
 10 .bss          00005ce0  00000000020081e0  00000000020081e0  000181e0  2**3
                  ALLOC
 11 .bss_end      00000000  000000000200dec0  000000000200dec0  0001dec0  2**3
                  CONTENTS, ALLOC, LOAD, DATA
 12 .comment      00000027  0000000000000000  0000000000000000  0001dec0  2**0
                  CONTENTS, READONLY
SYMBOL TABLE:
0000000002000000 l    d  .text	0000000000000000 .text
0000000002000800 l    d  .text_rest	0000000000000000 .text_rest
0000000002005228 l    d  .rodata	0000000000000000 .rodata
0000000002006e48 l    d  .hash	0000000000000000 .hash
0000000002006e60 l    d  .data	0000000000000000 .data
0000000002006f38 l    d  .got	0000000000000000 .got
0000000002006f40 l    d  .got.plt	0000000000000000 .got.plt
0000000002006f58 l    d  .rock_list	0000000000000000 .rock_list
0000000002007070 l    d  .rela.dyn	0000000000000000 .rela.dyn
00000000020081e0 l    d  .bss_start	0000000000000000 .bss_start
00000000020081e0 l    d  .bss	0000000000000000 .bss
000000000200dec0 l    d  .bss_end	0000000000000000 .bss_end
0000000000000000 l    d  .comment	0000000000000000 .comment
0000000000000000 l    df *ABS*	0000000000000000 sections.c
0000000000000000 l    df *ABS*	0000000000000000 arch/arm64/kernel/start.o
0000000002000028 l       .text	0000000000000000 reset
0000000002000094 l       .text	0000000000000000 master_cpu
0000000000000000 l    df *ABS*	0000000000000000 main_arm64.c
0000000000000000 l    df *ABS*	0000000000000000 board_init.c
0000000000000000 l    df *ABS*	0000000000000000 board_f.c
0000000002000838 l     F .text_rest	0000000000000020 setup_mon_len
0000000002000880 l     F .text_rest	0000000000000020 display_new_sp
00000000020008a0 l     F .text_rest	0000000000000098 reserve_malloc
0000000002000938 l     F .text_rest	0000000000000038 reserve_global_data
0000000002000970 l     F .text_rest	0000000000000064 reserve_vmimage
00000000020009d4 l     F .text_rest	0000000000000074 setup_reloc
0000000002000a6c l     F .text_rest	0000000000000078 setup_dest_addr
0000000002000aec l     F .text_rest	0000000000000028 reserve_stacks
0000000002000b18 l     F .text_rest	0000000000000074 show_dram_config
0000000002005cc8 l     O .rodata	0000000000000078 init_sequence_f
0000000000000000 l    df *ABS*	0000000000000000 board_r.c
0000000002000c20 l     F .text_rest	0000000000000018 initr_reloc
0000000002000c40 l     F .text_rest	0000000000000018 run_main_loop
0000000002000c58 l     F .text_rest	0000000000000014 initr_caches
0000000002006e60 l     O .data	0000000000000020 init_sequence_r
0000000000000000 l    df *ABS*	0000000000000000 cli.c
0000000000000000 l    df *ABS*	0000000000000000 command.c
00000000020081e0 l     O .bss	0000000000000401 tmp_buf
0000000002006f58 l     O .rock_list	0000000000000000 start.4
0000000002006f58 l     O .rock_list	0000000000000000 start.5
0000000002006f58 l     O .rock_list	0000000000000000 start.1
0000000002006f58 l     O .rock_list	0000000000000000 start.2
0000000002007070 l     O .rock_list	0000000000000000 end.3
0000000002007070 l     O .rock_list	0000000000000000 end.0
0000000000000000 l    df *ABS*	0000000000000000 cli_readline.c
00000000020017d0 l     F .text_rest	0000000000000148 cread_add_char
00000000020089f0 l     O .bss	0000000000005014 hist_lines
00000000020089ec l     O .bss	0000000000000004 hist_add_idx
000000000200da08 l     O .bss	00000000000000a0 hist_list
000000000200daa8 l     O .bss	0000000000000004 hist_max
000000000200daac l     O .bss	0000000000000004 hist_num
000000000200dab0 l     O .bss	0000000000000004 initted.0
0000000002006e80 l     O .data	0000000000000004 hist_cur
0000000000000000 l    df *ABS*	0000000000000000 cli_simple.c
000000000200dab8 l     O .bss	0000000000000401 lastcommand.0
0000000002005228 l     O .rodata	0000000000000016 __func__.1
0000000000000000 l    df *ABS*	0000000000000000 interrupt.c
00000000020026d4 l     F .text_rest	0000000000000074 do_switch_el
0000000002002748 l     F .text_rest	0000000000000024 swtich_to_el0_test
000000000200276c l     F .text_rest	0000000000000028 swtich_to_el1_test
0000000002002794 l     F .text_rest	000000000000002c swtich_to_el2_test
0000000002006e88 l     O .data	00000000000000a8 cmd_switch_sub
0000000000000000 l    df *ABS*	0000000000000000 common/cpu.o
0000000000000000 l    df *ABS*	0000000000000000 arch/arm64/kernel/cache.o
00000000020028c0 l       .text_rest	0000000000000000 loop_set
00000000020028c4 l       .text_rest	0000000000000000 loop_way
0000000002002954 l       .text_rest	0000000000000000 finished
0000000002002918 l       .text_rest	0000000000000000 loop_level
0000000002002934 l       .text_rest	0000000000000000 skip
0000000000000000 l    df *ABS*	0000000000000000 cache_v8.c
0000000000000000 l    df *ABS*	0000000000000000 arch/arm64/kernel/tlb.o
0000000000000000 l    df *ABS*	0000000000000000 arch/arm64/kernel/crt0_64.o
0000000002002ab4 l       .text_rest	0000000000000000 relocation_return
0000000002002ac0 l       .text_rest	0000000000000000 clear_loop
0000000000000000 l    df *ABS*	0000000000000000 arch/arm64/kernel/relocate_64.o
0000000002002b70 l       .text_rest	0000000000000000 relocate_done
0000000002002b24 l       .text_rest	0000000000000000 copy_loop
0000000002002b48 l       .text_rest	0000000000000000 fixloop
0000000002002b68 l       .text_rest	0000000000000000 fixnext
0000000000000000 l    df *ABS*	0000000000000000 interrupts_64.c
0000000000000000 l    df *ABS*	0000000000000000 arch/arm64/kernel/exceptions.o
0000000002003010 l       .text_rest	0000000000000000 _exception_entry
000000000200310c l       .text_rest	0000000000000000 exception_exit
0000000002003090 l       .text_rest	0000000000000000 _save_el_regs
0000000002003190 l       .text_rest	0000000000000000 _restore_regs
0000000000000000 l    df *ABS*	0000000000000000 uart.c
0000000000000000 l    df *ABS*	0000000000000000 help.c
0000000002003444 l     F .text_rest	000000000000009c do_help
0000000002006f58 l     O .rock_list	0000000000000000 start.1
0000000002006f58 l     O .rock_list	0000000000000000 start.2
0000000002007070 l     O .rock_list	0000000000000000 end.0
0000000000000000 l    df *ABS*	0000000000000000 version.c
00000000020034e0 l     F .text_rest	000000000000004c do_version
0000000000000000 l    df *ABS*	0000000000000000 debug.c
000000000200352c l     F .text_rest	0000000000000060 do_debug
0000000000000000 l    df *ABS*	0000000000000000 display_options.c
0000000002005d40 l     O .rodata	0000000000000006 names.0
0000000000000000 l    df *ABS*	0000000000000000 errno_str.c
0000000002005848 l     O .rodata	00000000000003f0 errno_message
0000000000000000 l    df *ABS*	0000000000000000 hang.c
0000000000000000 l    df *ABS*	0000000000000000 panic.c
0000000000000000 l    df *ABS*	0000000000000000 printk.c
0000000000000000 l    df *ABS*	0000000000000000 string.c
0000000000000000 l    df *ABS*	0000000000000000 strto.c
0000000002003c34 l     F .text_rest	00000000000000c0 _parse_integer_fixup_radix
0000000000000000 l    df *ABS*	0000000000000000 vsprintf.c
0000000002003da8 l     F .text_rest	00000000000000f0 put_dec_trunc
0000000002003e98 l     F .text_rest	0000000000000114 put_dec
0000000002003fac l     F .text_rest	0000000000000340 number
00000000020042ec l     F .text_rest	000000000000013c string
0000000002004428 l     F .text_rest	0000000000000bc0 vsnprintf_internal
00000000020055e8 l     O .rodata	0000000000000010 digits.1
0000000000000000 l    df *ABS*	0000000000000000 ctype.c
0000000000000000 l    df *ABS*	0000000000000000 hexdump.c
0000000000000000 l    df *ABS*	0000000000000000 
0000000002006f38 l     O *ABS*	0000000000000000 _GLOBAL_OFFSET_TABLE_
00000000020085e8 g     O .bss	0000000000000401 console_buffer
000000000200364c g     F .text_rest	000000000000001c display_options_get_banner
000000000200398c g     F .text_rest	0000000000000018 strcpy
0000000002000860  w    F .text_rest	0000000000000010 dram_init
0000000002004fe8 g     F .text_rest	0000000000000060 vscnprintf
0000000002007070 g     O .rock_list	0000000000000000 __rel_dyn_start
00000000020000a4  w    F .text	0000000000000004 smp_kick_all_cpus
0000000002000d08 g     F .text_rest	00000000000000d8 find_cmd_tbl
0000000002006e00  w    O .rodata	0000000000000042 version_string
0000000002002644 g     F .text_rest	0000000000000090 cli_simple_loop
0000000002005110 g     F .text_rest	00000000000000b8 printf
00000000020050d4 g     F .text_rest	000000000000003c vsprintf
0000000002002a20  w    F .text_rest	0000000000000004 enable_caches
0000000002003bc0 g     F .text_rest	0000000000000040 memmove
0000000002005048 g     F .text_rest	000000000000008c snprintf
00000000020037d0 g     F .text_rest	0000000000000014 hang
0000000002002af0 g     F .text_rest	00000000000000d8 relocate_code
0000000002006fc8 g     O .rock_list	0000000000000038 _rock_list_2_cmd_2_question_mark
00000000020033d0 g     F .text_rest	0000000000000024 getc
0000000002002e28  w    F .text_rest	0000000000000028 do_fiq
0000000002003af8 g     F .text_rest	000000000000006c memcpy
0000000002002a24 g     F .text_rest	000000000000004c __asm_invalidate_tlb_all
00000000020033f4 g     F .text_rest	000000000000004c puts
0000000002007070 g     O .rock_list	0000000000000000 __image_copy_end
0000000002000820 g     F .text_rest	0000000000000018 board_init_f_init_reserve
0000000002000e54 g     F .text_rest	0000000000000070 cmd_usage
0000000002002bc8 g     F .text_rest	00000000000000fc show_regs
00000000020027c0 g     F .text_rest	0000000000000000 switch_to_el2_g
0000000002002e00  w    F .text_rest	0000000000000028 do_irq
00000000020016a8 g     F .text_rest	000000000000001c cmd_always_repeatable
0000000002000800 g     F .text_rest	0000000000000014 main_loop
000000000200dec0 g     O .bss_end	0000000000000000 __bss_end
0000000002000c6c g     F .text_rest	0000000000000078 board_init_r
0000000002002d64 g     F .text_rest	000000000000009c do_sync
00000000020000e0  w    F .text	0000000000000004 save_boot_params
0000000002007038 g     O .rock_list	0000000000000038 _rock_list_2_cmd_2_version
0000000002003a58 g     F .text_rest	0000000000000034 strnlen
0000000002002e50  w    F .text_rest	0000000000000028 do_error
0000000002006f58 g       .rock_list	0000000000000000 __section_irq_table_start
000000000200125c g     F .text_rest	000000000000044c cmd_auto_complete
0000000002000878  w    F .text_rest	0000000000000008 dram_init_banksize
0000000002002960 g     F .text_rest	0000000000000034 __asm_flush_dcache_range
0000000002007000 g     O .rock_list	0000000000000038 _rock_list_2_cmd_2_switch_el
0000000002000b8c  w    F .text_rest	0000000000000004 timer_init
0000000002000cf4 g     F .text_rest	0000000000000010 cli_loop
00000000020051c8 g     F .text_rest	0000000000000060 vprintf
0000000002000858  w    F .text_rest	0000000000000008 board_early_init_f
0000000002000de0 g     F .text_rest	0000000000000074 find_cmd
0000000002002804 g     F .text_rest	0000000000000000 switch_to_el1_g
0000000002003440 g     F .text_rest	0000000000000004 uart_init
0000000002002cec g     F .text_rest	0000000000000028 do_bad_irq
0000000002000000 g       .text	0000000000000000 _start
0000000002000018 g       .text	0000000000000000 _bss_start_ofs
0000000002001918 g     F .text_rest	0000000000000870 cli_readline_into_buffer
0000000002003b64 g     F .text_rest	000000000000005c strlcpy
00000000020039cc g     F .text_rest	000000000000003c strncmp
0000000002003668 g     F .text_rest	0000000000000030 display_options
0000000002000098  w    F .text	000000000000000c lowlevel_init
00000000020037e4 g     F .text_rest	000000000000008c panic
0000000002000a48  w    F .text_rest	000000000000001c board_get_usable_ram_top
0000000002003c00 g     F .text_rest	0000000000000034 memcmp
0000000002006f30 g     O .data	0000000000000001 message_logleve
0000000002003870 g     F .text_rest	000000000000011c printk
000000000200002c g       .text	0000000000000000 save_boot_params_ret
0000000002002994  w    F .text_rest	0000000000000008 __asm_flush_l3_dcache
00000000020016c4 g     F .text_rest	0000000000000018 cmd_never_repeatable
0000000002003698 g     F .text_rest	00000000000000f4 print_size
00000000020022ac g     F .text_rest	00000000000001d8 cli_simple_process_macros
0000000002005240 g     O .rodata	0000000000000100 _ctype
00000000020081e0 g     O .bss_start	0000000000000000 __bss_start
0000000002003a8c g     F .text_rest	000000000000006c memset
0000000002002cc4 g     F .text_rest	0000000000000028 do_bad_sync
0000000002000ec4 g     F .text_rest	00000000000001c0 _do_help
0000000002000870  w    F .text_rest	0000000000000008 reserve_mmu
0000000002000020 g       .text	0000000000000000 _bss_end_ofs
0000000002002894 g     F .text_rest	0000000000000064 __asm_dcache_level
0000000002003390 g     F .text_rest	0000000000000040 putc
0000000002000d04 g     F .text_rest	0000000000000004 cli_init
00000000020039a4 g     F .text_rest	0000000000000028 strcmp
000000000200358c g     F .text_rest	00000000000000c0 display_options_get_banner_priv
0000000002002958 g     F .text_rest	0000000000000008 __asm_flush_dcache_all
0000000002000010 g       .text	0000000000000000 _end_ofs
0000000002000b90 g     F .text_rest	0000000000000090 board_init_f
00000000020000a8 g     F .text	0000000000000038 c_runtime_cpu_setup
00000000020016dc g     F .text_rest	00000000000000f4 cmd_process
0000000002000008 g       .text	0000000000000000 _TEXT_BASE
0000000002006f90 g     O .rock_list	0000000000000038 _rock_list_2_cmd_2_help
0000000002002d14 g     F .text_rest	0000000000000028 do_bad_fiq
0000000002002484 g     F .text_rest	00000000000001c0 cli_simple_run_command
0000000002002878 g     F .text_rest	0000000000000000 switch_to_el0_g
0000000002003cf4 g     F .text_rest	00000000000000b4 simple_strtoul
000000000200378c g     F .text_rest	0000000000000044 errno_str
00000000020081e0 g     O .rela.dyn	0000000000000000 _end
0000000002000ae4  w    F .text_rest	0000000000000008 arch_reserve_stacks
0000000002006f58 g     O .rock_list	0000000000000038 _rock_list_2_cmd_2_debug
0000000002000814 g     F .text_rest	000000000000000c board_init_f_alloc_reserve
0000000002002188 g     F .text_rest	0000000000000020 cli_readline
0000000002000c38  w    F .text_rest	0000000000000008 board_early_init_r
0000000002001084 g     F .text_rest	00000000000001d8 complete_subcmdv
00000000020028f8 g     F .text_rest	0000000000000060 __asm_dcache_all
00000000020081e0 g     O .bss_start	0000000000000000 __rel_dyn_end
0000000002003000 g       .text_rest	0000000000000000 vectors
0000000002003a34 g     F .text_rest	0000000000000024 strlen
0000000002002d3c g     F .text_rest	0000000000000028 do_bad_error
0000000002000ce4 g     F .text_rest	0000000000000010 run_command_repeatable
0000000002003a08 g     F .text_rest	000000000000002c strchr
0000000002000000 g     O .text	0000000000000000 __image_copy_start
000000000200299c g     F .text_rest	0000000000000084 dcache_disable
0000000002005cb0 g     O .rodata	0000000000000011 hex_asc
0000000002000b14  w    F .text_rest	0000000000000004 board_add_ram_info
00000000020021a8 g     F .text_rest	0000000000000104 cli_simple_parse_line
0000000002002a70 g     F .text_rest	0000000000000068 _main
0000000002000a64  w    F .text_rest	0000000000000008 get_effective_memsize
0000000002006f58 g       .rock_list	0000000000000000 __section_irq_table_end



Disassembly of section .text:

0000000002000000 <__image_copy_start>:
 2000000:	0a 00 00 14 1f 20 03 d5                             ..... ..

0000000002000008 <_TEXT_BASE>:
 2000008:	02000000 	.word	0x02000000
 200000c:	00000000 	.word	0x00000000

0000000002000010 <_end_ofs>:
 2000010:	000081e0 	.word	0x000081e0
 2000014:	00000000 	.word	0x00000000

0000000002000018 <_bss_start_ofs>:
 2000018:	000081e0 	.word	0x000081e0
 200001c:	00000000 	.word	0x00000000

0000000002000020 <_bss_end_ofs>:
 2000020:	0000dec0 	.word	0x0000dec0
 2000024:	00000000 	.word	0x00000000

0000000002000028 <reset>:
 2000028:	1400002e 	b	20000e0 <save_boot_params>

000000000200002c <save_boot_params_ret>:
 200002c:	10017ea0 	adr	x0, 2003000 <vectors>
 2000030:	d5384241 	mrs	x1, currentel
 2000034:	f100303f 	cmp	x1, #0xc
 2000038:	540000a0 	b.eq	200004c <save_boot_params_ret+0x20>  // b.none
 200003c:	f100203f 	cmp	x1, #0x8
 2000040:	54000160 	b.eq	200006c <save_boot_params_ret+0x40>  // b.none
 2000044:	f100103f 	cmp	x1, #0x4
 2000048:	540001a0 	b.eq	200007c <save_boot_params_ret+0x50>  // b.none
 200004c:	d51ec000 	msr	vbar_el3, x0
 2000050:	d53e1100 	mrs	x0, scr_el3
 2000054:	b2400c00 	orr	x0, x0, #0xf
 2000058:	d51e1100 	msr	scr_el3, x0
 200005c:	d51e115f 	msr	cptr_el3, xzr
 2000060:	58000440 	ldr	x0, 20000e8 <save_boot_params+0x8>
 2000064:	d51be000 	msr	cntfrq_el0, x0
 2000068:	14000008 	b	2000088 <save_boot_params_ret+0x5c>
 200006c:	d51cc000 	msr	vbar_el2, x0
 2000070:	d2867fe0 	mov	x0, #0x33ff                	// #13311
 2000074:	d51c1140 	msr	cptr_el2, x0
 2000078:	14000004 	b	2000088 <save_boot_params_ret+0x5c>
 200007c:	d518c000 	msr	vbar_el1, x0
 2000080:	d2a00600 	mov	x0, #0x300000              	// #3145728
 2000084:	d5181040 	msr	cpacr_el1, x0
 2000088:	94000004 	bl	2000098 <lowlevel_init>
 200008c:	d50320bf 	sevl
 2000090:	d503205f 	wfe

0000000002000094 <master_cpu>:
 2000094:	94000a77 	bl	2002a70 <_main>

0000000002000098 <lowlevel_init>:
 2000098:	aa1e03fd 	mov	x29, x30
 200009c:	aa1d03fe 	mov	x30, x29
 20000a0:	d65f03c0 	ret

00000000020000a4 <smp_kick_all_cpus>:
 20000a4:	d65f03c0 	ret

00000000020000a8 <c_runtime_cpu_setup>:
 20000a8:	10017ac0 	adr	x0, 2003000 <vectors>
 20000ac:	d5384241 	mrs	x1, currentel
 20000b0:	f100303f 	cmp	x1, #0xc
 20000b4:	540000a0 	b.eq	20000c8 <c_runtime_cpu_setup+0x20>  // b.none
 20000b8:	f100203f 	cmp	x1, #0x8
 20000bc:	540000a0 	b.eq	20000d0 <c_runtime_cpu_setup+0x28>  // b.none
 20000c0:	f100103f 	cmp	x1, #0x4
 20000c4:	540000a0 	b.eq	20000d8 <c_runtime_cpu_setup+0x30>  // b.none
 20000c8:	d51ec000 	msr	vbar_el3, x0
 20000cc:	14000004 	b	20000dc <c_runtime_cpu_setup+0x34>
 20000d0:	d51cc000 	msr	vbar_el2, x0
 20000d4:	14000002 	b	20000dc <c_runtime_cpu_setup+0x34>
 20000d8:	d518c000 	msr	vbar_el1, x0
 20000dc:	d65f03c0 	ret

00000000020000e0 <save_boot_params>:
 20000e0:	17ffffd3 	b	200002c <save_boot_params_ret>
 20000e4:	00000000 	udf	#0
 20000e8:	0bebc200 	.word	0x0bebc200
 20000ec:	00000000 	.word	0x00000000

Disassembly of section .text_rest:

0000000002000800 <main_loop>:
 2000800:	f81f0ffe 	str	x30, [sp, #-16]!
 2000804:	94000140 	bl	2000d04 <cli_init>
 2000808:	9400013b 	bl	2000cf4 <cli_loop>
 200080c:	f84107fe 	ldr	x30, [sp], #16
 2000810:	d65f03c0 	ret

0000000002000814 <board_init_f_alloc_reserve>:
 2000814:	d103a000 	sub	x0, x0, #0xe8
 2000818:	927cec00 	and	x0, x0, #0xfffffffffffffff0
 200081c:	d65f03c0 	ret

0000000002000820 <board_init_f_init_reserve>:
 2000820:	f81f0ffe 	str	x30, [sp, #-16]!
 2000824:	d2801d02 	mov	x2, #0xe8                  	// #232
 2000828:	52800001 	mov	w1, #0x0                   	// #0
 200082c:	94000c98 	bl	2003a8c <memset>
 2000830:	f84107fe 	ldr	x30, [sp], #16
 2000834:	d65f03c0 	ret

0000000002000838 <setup_mon_len>:
 2000838:	b0000060 	adrp	x0, 200d000 <hist_lines+0x4610>
 200083c:	913b0000 	add	x0, x0, #0xec0
 2000840:	90000001 	adrp	x1, 2000000 <__image_copy_start>
 2000844:	91000021 	add	x1, x1, #0x0
 2000848:	cb010000 	sub	x0, x0, x1
 200084c:	f9002240 	str	x0, [x18, #64]
 2000850:	52800000 	mov	w0, #0x0                   	// #0
 2000854:	d65f03c0 	ret

0000000002000858 <board_early_init_f>:
 2000858:	52800000 	mov	w0, #0x0                   	// #0
 200085c:	d65f03c0 	ret

0000000002000860 <dram_init>:
 2000860:	d2a00081 	mov	x1, #0x40000               	// #262144
 2000864:	f9001e41 	str	x1, [x18, #56]
 2000868:	52800000 	mov	w0, #0x0                   	// #0
 200086c:	d65f03c0 	ret

0000000002000870 <reserve_mmu>:
 2000870:	52800000 	mov	w0, #0x0                   	// #0
 2000874:	d65f03c0 	ret

0000000002000878 <dram_init_banksize>:
 2000878:	52800000 	mov	w0, #0x0                   	// #0
 200087c:	d65f03c0 	ret

0000000002000880 <display_new_sp>:
 2000880:	f81f0ffe 	str	x30, [sp, #-16]!
 2000884:	f9402a41 	ldr	x1, [x18, #80]
 2000888:	b0000020 	adrp	x0, 2005000 <vscnprintf+0x18>
 200088c:	9117e000 	add	x0, x0, #0x5f8
 2000890:	94000bf8 	bl	2003870 <printk>
 2000894:	52800000 	mov	w0, #0x0                   	// #0
 2000898:	f84107fe 	ldr	x30, [sp], #16
 200089c:	d65f03c0 	ret

00000000020008a0 <reserve_malloc>:
 20008a0:	f81e0ffe 	str	x30, [sp, #-32]!
 20008a4:	aa1203e0 	mov	x0, x18
 20008a8:	f9402a41 	ldr	x1, [x18, #80]
 20008ac:	f9000fe1 	str	x1, [sp, #24]
 20008b0:	f9400fe1 	ldr	x1, [sp, #24]
 20008b4:	f9400fe2 	ldr	x2, [sp, #24]
 20008b8:	92402c42 	and	x2, x2, #0xfff
 20008bc:	cb020021 	sub	x1, x1, x2
 20008c0:	f9002a41 	str	x1, [x18, #80]
 20008c4:	f9402a41 	ldr	x1, [x18, #80]
 20008c8:	f9401242 	ldr	x2, [x18, #32]
 20008cc:	d140d421 	sub	x1, x1, #0x35, lsl #12
 20008d0:	d1200021 	sub	x1, x1, #0x800
 20008d4:	eb02003f 	cmp	x1, x2
 20008d8:	540002a2 	b.cs	200092c <reserve_malloc+0x8c>  // b.hs, b.nlast
 20008dc:	f9402a41 	ldr	x1, [x18, #80]
 20008e0:	f9401242 	ldr	x2, [x18, #32]
 20008e4:	d1404021 	sub	x1, x1, #0x10, lsl #12
 20008e8:	cb020021 	sub	x1, x1, x2
 20008ec:	9274cc21 	and	x1, x1, #0xfffffffffffff000
 20008f0:	f9402802 	ldr	x2, [x0, #80]
 20008f4:	cb010042 	sub	x2, x2, x1
 20008f8:	f9002802 	str	x2, [x0, #80]
 20008fc:	f9402802 	ldr	x2, [x0, #80]
 2000900:	f9003002 	str	x2, [x0, #96]
 2000904:	f9003401 	str	x1, [x0, #104]
 2000908:	f9403401 	ldr	x1, [x0, #104]
 200090c:	f9403002 	ldr	x2, [x0, #96]
 2000910:	d34afc21 	lsr	x1, x1, #10
 2000914:	b0000020 	adrp	x0, 2005000 <vscnprintf+0x18>
 2000918:	9136a000 	add	x0, x0, #0xda8
 200091c:	94000bd5 	bl	2003870 <printk>
 2000920:	52800000 	mov	w0, #0x0                   	// #0
 2000924:	f84207fe 	ldr	x30, [sp], #32
 2000928:	d65f03c0 	ret
 200092c:	d28a0001 	mov	x1, #0x5000                	// #20480
 2000930:	f2a00041 	movk	x1, #0x2, lsl #16
 2000934:	17ffffef 	b	20008f0 <reserve_malloc+0x50>

0000000002000938 <reserve_global_data>:
 2000938:	f81f0ffe 	str	x30, [sp, #-16]!
 200093c:	f9402a41 	ldr	x1, [x18, #80]
 2000940:	d103a021 	sub	x1, x1, #0xe8
 2000944:	f9002a41 	str	x1, [x18, #80]
 2000948:	f9402a41 	ldr	x1, [x18, #80]
 200094c:	f9003a41 	str	x1, [x18, #112]
 2000950:	f9402a42 	ldr	x2, [x18, #80]
 2000954:	d2801d01 	mov	x1, #0xe8                  	// #232
 2000958:	b0000020 	adrp	x0, 2005000 <vscnprintf+0x18>
 200095c:	9135c000 	add	x0, x0, #0xd70
 2000960:	94000bc4 	bl	2003870 <printk>
 2000964:	52800000 	mov	w0, #0x0                   	// #0
 2000968:	f84107fe 	ldr	x30, [sp], #16
 200096c:	d65f03c0 	ret

0000000002000970 <reserve_vmimage>:
 2000970:	f9400241 	ldr	x1, [x18]
 2000974:	365800a1 	tbz	w1, #11, 2000988 <reserve_vmimage+0x18>
 2000978:	f9401a41 	ldr	x1, [x18, #48]
 200097c:	f9002a41 	str	x1, [x18, #80]
 2000980:	52800000 	mov	w0, #0x0                   	// #0
 2000984:	d65f03c0 	ret
 2000988:	f81f0ffe 	str	x30, [sp, #-16]!
 200098c:	f9402242 	ldr	x2, [x18, #64]
 2000990:	f9401a41 	ldr	x1, [x18, #48]
 2000994:	cb020021 	sub	x1, x1, x2
 2000998:	f9001a41 	str	x1, [x18, #48]
 200099c:	f9401a41 	ldr	x1, [x18, #48]
 20009a0:	9274cc21 	and	x1, x1, #0xfffffffffffff000
 20009a4:	f9001a41 	str	x1, [x18, #48]
 20009a8:	f9402241 	ldr	x1, [x18, #64]
 20009ac:	f9401a42 	ldr	x2, [x18, #48]
 20009b0:	d34afc21 	lsr	x1, x1, #10
 20009b4:	b0000020 	adrp	x0, 2005000 <vscnprintf+0x18>
 20009b8:	91374000 	add	x0, x0, #0xdd0
 20009bc:	94000bad 	bl	2003870 <printk>
 20009c0:	f9401a41 	ldr	x1, [x18, #48]
 20009c4:	f9002a41 	str	x1, [x18, #80]
 20009c8:	52800000 	mov	w0, #0x0                   	// #0
 20009cc:	f84107fe 	ldr	x30, [sp], #16
 20009d0:	d65f03c0 	ret

00000000020009d4 <setup_reloc>:
 20009d4:	f81f0ffe 	str	x30, [sp, #-16]!
 20009d8:	f9400240 	ldr	x0, [x18]
 20009dc:	375802e0 	tbnz	w0, #11, 2000a38 <setup_reloc+0x64>
 20009e0:	aa1203e1 	mov	x1, x18
 20009e4:	f9401a40 	ldr	x0, [x18, #48]
 20009e8:	90000002 	adrp	x2, 2000000 <__image_copy_start>
 20009ec:	91000042 	add	x2, x2, #0x0
 20009f0:	cb020000 	sub	x0, x0, x2
 20009f4:	f9002e40 	str	x0, [x18, #88]
 20009f8:	f9403a40 	ldr	x0, [x18, #112]
 20009fc:	d2801d02 	mov	x2, #0xe8                  	// #232
 2000a00:	94000c3e 	bl	2003af8 <memcpy>
 2000a04:	f9402e41 	ldr	x1, [x18, #88]
 2000a08:	b0000020 	adrp	x0, 2005000 <vscnprintf+0x18>
 2000a0c:	9139a000 	add	x0, x0, #0xe68
 2000a10:	94000b98 	bl	2003870 <printk>
 2000a14:	f9401a41 	ldr	x1, [x18, #48]
 2000a18:	f9403a42 	ldr	x2, [x18, #112]
 2000a1c:	f9402a43 	ldr	x3, [x18, #80]
 2000a20:	b0000020 	adrp	x0, 2005000 <vscnprintf+0x18>
 2000a24:	913a2000 	add	x0, x0, #0xe88
 2000a28:	94000b92 	bl	2003870 <printk>
 2000a2c:	52800000 	mov	w0, #0x0                   	// #0
 2000a30:	f84107fe 	ldr	x30, [sp], #16
 2000a34:	d65f03c0 	ret
 2000a38:	b0000020 	adrp	x0, 2005000 <vscnprintf+0x18>
 2000a3c:	91390000 	add	x0, x0, #0xe40
 2000a40:	94000b8c 	bl	2003870 <printk>
 2000a44:	17fffffa 	b	2000a2c <setup_reloc+0x58>

0000000002000a48 <board_get_usable_ram_top>:
 2000a48:	f9401643 	ldr	x3, [x18, #40]
 2000a4c:	d2800000 	mov	x0, #0x0                   	// #0
 2000a50:	12bfbe02 	mov	w2, #0x20fffff             	// #34603007
 2000a54:	eb02007f 	cmp	x3, x2
 2000a58:	54000049 	b.ls	2000a60 <board_get_usable_ram_top+0x18>  // b.plast
 2000a5c:	f9401640 	ldr	x0, [x18, #40]
 2000a60:	d65f03c0 	ret

0000000002000a64 <get_effective_memsize>:
 2000a64:	f9401e40 	ldr	x0, [x18, #56]
 2000a68:	d65f03c0 	ret

0000000002000a6c <setup_dest_addr>:
 2000a6c:	a9be53f3 	stp	x19, x20, [sp, #-32]!
 2000a70:	f9000bfe 	str	x30, [sp, #16]
 2000a74:	f9402241 	ldr	x1, [x18, #64]
 2000a78:	b0000020 	adrp	x0, 2005000 <vscnprintf+0x18>
 2000a7c:	9137e000 	add	x0, x0, #0xdf8
 2000a80:	94000b7c 	bl	2003870 <printk>
 2000a84:	f9401e41 	ldr	x1, [x18, #56]
 2000a88:	b0000020 	adrp	x0, 2005000 <vscnprintf+0x18>
 2000a8c:	91384000 	add	x0, x0, #0xe10
 2000a90:	94000b78 	bl	2003870 <printk>
 2000a94:	d2a04201 	mov	x1, #0x2100000             	// #34603008
 2000a98:	f9001241 	str	x1, [x18, #32]
 2000a9c:	f9401254 	ldr	x20, [x18, #32]
 2000aa0:	97fffff1 	bl	2000a64 <get_effective_memsize>
 2000aa4:	aa1203f3 	mov	x19, x18
 2000aa8:	8b000294 	add	x20, x20, x0
 2000aac:	f9001654 	str	x20, [x18, #40]
 2000ab0:	f9402240 	ldr	x0, [x18, #64]
 2000ab4:	97ffffe5 	bl	2000a48 <board_get_usable_ram_top>
 2000ab8:	f9001660 	str	x0, [x19, #40]
 2000abc:	f9401641 	ldr	x1, [x18, #40]
 2000ac0:	f9001a41 	str	x1, [x18, #48]
 2000ac4:	f9401641 	ldr	x1, [x18, #40]
 2000ac8:	b0000020 	adrp	x0, 2005000 <vscnprintf+0x18>
 2000acc:	9138a000 	add	x0, x0, #0xe28
 2000ad0:	94000b68 	bl	2003870 <printk>
 2000ad4:	52800000 	mov	w0, #0x0                   	// #0
 2000ad8:	f9400bfe 	ldr	x30, [sp, #16]
 2000adc:	a8c253f3 	ldp	x19, x20, [sp], #32
 2000ae0:	d65f03c0 	ret

0000000002000ae4 <arch_reserve_stacks>:
 2000ae4:	52800000 	mov	w0, #0x0                   	// #0
 2000ae8:	d65f03c0 	ret

0000000002000aec <reserve_stacks>:
 2000aec:	f81f0ffe 	str	x30, [sp, #-16]!
 2000af0:	f9402a41 	ldr	x1, [x18, #80]
 2000af4:	d1004021 	sub	x1, x1, #0x10
 2000af8:	f9002a41 	str	x1, [x18, #80]
 2000afc:	f9402a41 	ldr	x1, [x18, #80]
 2000b00:	927cec21 	and	x1, x1, #0xfffffffffffffff0
 2000b04:	f9002a41 	str	x1, [x18, #80]
 2000b08:	97fffff7 	bl	2000ae4 <arch_reserve_stacks>
 2000b0c:	f84107fe 	ldr	x30, [sp], #16
 2000b10:	d65f03c0 	ret

0000000002000b14 <board_add_ram_info>:
 2000b14:	d65f03c0 	ret

0000000002000b18 <show_dram_config>:
 2000b18:	a9bf7bf3 	stp	x19, x30, [sp, #-16]!
 2000b1c:	b0000020 	adrp	x0, 2005000 <vscnprintf+0x18>
 2000b20:	913b0000 	add	x0, x0, #0xec0
 2000b24:	94000b53 	bl	2003870 <printk>
 2000b28:	f9407253 	ldr	x19, [x18, #224]
 2000b2c:	f9406e42 	ldr	x2, [x18, #216]
 2000b30:	52800001 	mov	w1, #0x0                   	// #0
 2000b34:	b0000020 	adrp	x0, 2005000 <vscnprintf+0x18>
 2000b38:	913b6000 	add	x0, x0, #0xed8
 2000b3c:	94000b4d 	bl	2003870 <printk>
 2000b40:	f9407240 	ldr	x0, [x18, #224]
 2000b44:	b0000021 	adrp	x1, 2005000 <vscnprintf+0x18>
 2000b48:	9132a021 	add	x1, x1, #0xca8
 2000b4c:	94000ad3 	bl	2003698 <print_size>
 2000b50:	b0000020 	adrp	x0, 2005000 <vscnprintf+0x18>
 2000b54:	913bc000 	add	x0, x0, #0xef0
 2000b58:	94000b46 	bl	2003870 <printk>
 2000b5c:	b0000021 	adrp	x1, 2005000 <vscnprintf+0x18>
 2000b60:	91164021 	add	x1, x1, #0x590
 2000b64:	aa1303e0 	mov	x0, x19
 2000b68:	94000acc 	bl	2003698 <print_size>
 2000b6c:	52800000 	mov	w0, #0x0                   	// #0
 2000b70:	97ffffe9 	bl	2000b14 <board_add_ram_info>
 2000b74:	b0000020 	adrp	x0, 2005000 <vscnprintf+0x18>
 2000b78:	91168000 	add	x0, x0, #0x5a0
 2000b7c:	94000a1e 	bl	20033f4 <puts>
 2000b80:	52800000 	mov	w0, #0x0                   	// #0
 2000b84:	a8c17bf3 	ldp	x19, x30, [sp], #16
 2000b88:	d65f03c0 	ret

0000000002000b8c <timer_init>:
 2000b8c:	d65f03c0 	ret

0000000002000b90 <board_init_f>:
 2000b90:	a9be53f3 	stp	x19, x20, [sp, #-32]!
 2000b94:	f9000bfe 	str	x30, [sp, #16]
 2000b98:	f9000240 	str	x0, [x18]
 2000b9c:	52984013 	mov	w19, #0xc200                	// #49664
 2000ba0:	72a00033 	movk	w19, #0x1, lsl #16
 2000ba4:	b9000a53 	str	w19, [x18, #8]
 2000ba8:	97fffff9 	bl	2000b8c <timer_init>
 2000bac:	2a1303e1 	mov	w1, w19
 2000bb0:	52800040 	mov	w0, #0x2                   	// #2
 2000bb4:	94000a23 	bl	2003440 <uart_init>
 2000bb8:	b0000033 	adrp	x19, 2005000 <vscnprintf+0x18>
 2000bbc:	91332273 	add	x19, x19, #0xcc8
 2000bc0:	90000000 	adrp	x0, 2000000 <__image_copy_start>
 2000bc4:	9120e000 	add	x0, x0, #0x838
 2000bc8:	14000005 	b	2000bdc <board_init_f+0x4c>
 2000bcc:	d63f0000 	blr	x0
 2000bd0:	35000100 	cbnz	w0, 2000bf0 <board_init_f+0x60>
 2000bd4:	f8408e60 	ldr	x0, [x19, #8]!
 2000bd8:	b40001e0 	cbz	x0, 2000c14 <board_init_f+0x84>
 2000bdc:	f9400241 	ldr	x1, [x18]
 2000be0:	92400034 	and	x20, x1, #0x1
 2000be4:	3607ff41 	tbz	w1, #0, 2000bcc <board_init_f+0x3c>
 2000be8:	f9402e54 	ldr	x20, [x18, #88]
 2000bec:	17fffff8 	b	2000bcc <board_init_f+0x3c>
 2000bf0:	f9400262 	ldr	x2, [x19]
 2000bf4:	2a0003e3 	mov	w3, w0
 2000bf8:	cb140042 	sub	x2, x2, x20
 2000bfc:	b0000021 	adrp	x1, 2005000 <vscnprintf+0x18>
 2000c00:	91332021 	add	x1, x1, #0xcc8
 2000c04:	b0000020 	adrp	x0, 2005000 <vscnprintf+0x18>
 2000c08:	910ea000 	add	x0, x0, #0x3a8
 2000c0c:	94001141 	bl	2005110 <printf>
 2000c10:	94000af0 	bl	20037d0 <hang>
 2000c14:	f9400bfe 	ldr	x30, [sp, #16]
 2000c18:	a8c253f3 	ldp	x19, x20, [sp], #32
 2000c1c:	d65f03c0 	ret

0000000002000c20 <initr_reloc>:
 2000c20:	f9400240 	ldr	x0, [x18]
 2000c24:	d2804022 	mov	x2, #0x201                 	// #513
 2000c28:	aa020000 	orr	x0, x0, x2
 2000c2c:	f9000240 	str	x0, [x18]
 2000c30:	52800000 	mov	w0, #0x0                   	// #0
 2000c34:	d65f03c0 	ret

0000000002000c38 <board_early_init_r>:
 2000c38:	52800000 	mov	w0, #0x0                   	// #0
 2000c3c:	d65f03c0 	ret

0000000002000c40 <run_main_loop>:
 2000c40:	f81f0ffe 	str	x30, [sp, #-16]!
 2000c44:	b0000020 	adrp	x0, 2005000 <vscnprintf+0x18>
 2000c48:	9132a000 	add	x0, x0, #0xca8
 2000c4c:	940009ea 	bl	20033f4 <puts>
 2000c50:	97fffeec 	bl	2000800 <main_loop>
 2000c54:	17ffffff 	b	2000c50 <run_main_loop+0x10>

0000000002000c58 <initr_caches>:
 2000c58:	f81f0ffe 	str	x30, [sp, #-16]!
 2000c5c:	94000771 	bl	2002a20 <enable_caches>
 2000c60:	52800000 	mov	w0, #0x0                   	// #0
 2000c64:	f84107fe 	ldr	x30, [sp], #16
 2000c68:	d65f03c0 	ret

0000000002000c6c <board_init_r>:
 2000c6c:	a9be53f3 	stp	x19, x20, [sp, #-32]!
 2000c70:	f9000bfe 	str	x30, [sp, #16]
 2000c74:	f9400240 	ldr	x0, [x18]
 2000c78:	9270f800 	and	x0, x0, #0xffffffffffff7fff
 2000c7c:	f9000240 	str	x0, [x18]
 2000c80:	d0000020 	adrp	x0, 2006000 <names.0+0x2c0>
 2000c84:	f9473000 	ldr	x0, [x0, #3680]
 2000c88:	b40002c0 	cbz	x0, 2000ce0 <board_init_r+0x74>
 2000c8c:	d0000033 	adrp	x19, 2006000 <names.0+0x2c0>
 2000c90:	91398273 	add	x19, x19, #0xe60
 2000c94:	14000005 	b	2000ca8 <board_init_r+0x3c>
 2000c98:	d63f0000 	blr	x0
 2000c9c:	35000100 	cbnz	w0, 2000cbc <board_init_r+0x50>
 2000ca0:	f8408e60 	ldr	x0, [x19, #8]!
 2000ca4:	b40001e0 	cbz	x0, 2000ce0 <board_init_r+0x74>
 2000ca8:	f9400241 	ldr	x1, [x18]
 2000cac:	92400034 	and	x20, x1, #0x1
 2000cb0:	3607ff41 	tbz	w1, #0, 2000c98 <board_init_r+0x2c>
 2000cb4:	f9402e54 	ldr	x20, [x18, #88]
 2000cb8:	17fffff8 	b	2000c98 <board_init_r+0x2c>
 2000cbc:	f9400262 	ldr	x2, [x19]
 2000cc0:	2a0003e3 	mov	w3, w0
 2000cc4:	cb140042 	sub	x2, x2, x20
 2000cc8:	d0000021 	adrp	x1, 2006000 <names.0+0x2c0>
 2000ccc:	91398021 	add	x1, x1, #0xe60
 2000cd0:	b0000020 	adrp	x0, 2005000 <vscnprintf+0x18>
 2000cd4:	910ea000 	add	x0, x0, #0x3a8
 2000cd8:	9400110e 	bl	2005110 <printf>
 2000cdc:	94000abd 	bl	20037d0 <hang>
 2000ce0:	94000abc 	bl	20037d0 <hang>

0000000002000ce4 <run_command_repeatable>:
 2000ce4:	f81f0ffe 	str	x30, [sp, #-16]!
 2000ce8:	940005e7 	bl	2002484 <cli_simple_run_command>
 2000cec:	f84107fe 	ldr	x30, [sp], #16
 2000cf0:	d65f03c0 	ret

0000000002000cf4 <cli_loop>:
 2000cf4:	f81f0ffe 	str	x30, [sp, #-16]!
 2000cf8:	94000653 	bl	2002644 <cli_simple_loop>
 2000cfc:	f84107fe 	ldr	x30, [sp], #16
 2000d00:	d65f03c0 	ret

0000000002000d04 <cli_init>:
 2000d04:	d65f03c0 	ret

0000000002000d08 <find_cmd_tbl>:
 2000d08:	a9bc53f3 	stp	x19, x20, [sp, #-64]!
 2000d0c:	a9015bf5 	stp	x21, x22, [sp, #16]
 2000d10:	a90263f7 	stp	x23, x24, [sp, #32]
 2000d14:	f9001bfe 	str	x30, [sp, #48]
 2000d18:	aa0003f5 	mov	x21, x0
 2000d1c:	b4000560 	cbz	x0, 2000dc8 <find_cmd_tbl+0xc0>
 2000d20:	aa0103f3 	mov	x19, x1
 2000d24:	2a0203f7 	mov	w23, w2
 2000d28:	528005c1 	mov	w1, #0x2e                  	// #46
 2000d2c:	94000b37 	bl	2003a08 <strchr>
 2000d30:	4b150014 	sub	w20, w0, w21
 2000d34:	b4000140 	cbz	x0, 2000d5c <find_cmd_tbl+0x54>
 2000d38:	937d7ef6 	sbfiz	x22, x23, #3, #32
 2000d3c:	cb37c2d6 	sub	x22, x22, w23, sxtw
 2000d40:	8b160e76 	add	x22, x19, x22, lsl #3
 2000d44:	eb16027f 	cmp	x19, x22
 2000d48:	54000440 	b.eq	2000dd0 <find_cmd_tbl+0xc8>  // b.none
 2000d4c:	aa1303f8 	mov	x24, x19
 2000d50:	52800017 	mov	w23, #0x0                   	// #0
 2000d54:	93407e94 	sxtw	x20, w20
 2000d58:	14000008 	b	2000d78 <find_cmd_tbl+0x70>
 2000d5c:	aa1503e0 	mov	x0, x21
 2000d60:	94000b35 	bl	2003a34 <strlen>
 2000d64:	2a0003f4 	mov	w20, w0
 2000d68:	17fffff4 	b	2000d38 <find_cmd_tbl+0x30>
 2000d6c:	9100e273 	add	x19, x19, #0x38
 2000d70:	eb16027f 	cmp	x19, x22
 2000d74:	540001a0 	b.eq	2000da8 <find_cmd_tbl+0xa0>  // b.none
 2000d78:	aa1403e2 	mov	x2, x20
 2000d7c:	f9400261 	ldr	x1, [x19]
 2000d80:	aa1503e0 	mov	x0, x21
 2000d84:	94000b12 	bl	20039cc <strncmp>
 2000d88:	35ffff20 	cbnz	w0, 2000d6c <find_cmd_tbl+0x64>
 2000d8c:	f9400260 	ldr	x0, [x19]
 2000d90:	94000b29 	bl	2003a34 <strlen>
 2000d94:	eb00029f 	cmp	x20, x0
 2000d98:	54000200 	b.eq	2000dd8 <find_cmd_tbl+0xd0>  // b.none
 2000d9c:	110006f7 	add	w23, w23, #0x1
 2000da0:	aa1303f8 	mov	x24, x19
 2000da4:	17fffff2 	b	2000d6c <find_cmd_tbl+0x64>
 2000da8:	710006ff 	cmp	w23, #0x1
 2000dac:	9a9f0318 	csel	x24, x24, xzr, eq  // eq = none
 2000db0:	aa1803e0 	mov	x0, x24
 2000db4:	a9415bf5 	ldp	x21, x22, [sp, #16]
 2000db8:	a94263f7 	ldp	x23, x24, [sp, #32]
 2000dbc:	f9401bfe 	ldr	x30, [sp, #48]
 2000dc0:	a8c453f3 	ldp	x19, x20, [sp], #64
 2000dc4:	d65f03c0 	ret
 2000dc8:	aa0003f8 	mov	x24, x0
 2000dcc:	17fffff9 	b	2000db0 <find_cmd_tbl+0xa8>
 2000dd0:	d2800018 	mov	x24, #0x0                   	// #0
 2000dd4:	17fffff7 	b	2000db0 <find_cmd_tbl+0xa8>
 2000dd8:	aa1303f8 	mov	x24, x19
 2000ddc:	17fffff5 	b	2000db0 <find_cmd_tbl+0xa8>

0000000002000de0 <find_cmd>:
 2000de0:	a9be53f3 	stp	x19, x20, [sp, #-32]!
 2000de4:	a9017bf5 	stp	x21, x30, [sp, #16]
 2000de8:	aa0003f5 	mov	x21, x0
 2000dec:	d0000034 	adrp	x20, 2006000 <names.0+0x2c0>
 2000df0:	913d6294 	add	x20, x20, #0xf58
 2000df4:	f0000033 	adrp	x19, 2007000 <_rock_list_2_cmd_2_switch_el>
 2000df8:	9101c273 	add	x19, x19, #0x70
 2000dfc:	cb140273 	sub	x19, x19, x20
 2000e00:	9343fe73 	asr	x19, x19, #3
 2000e04:	d28db6e0 	mov	x0, #0x6db7                	// #28087
 2000e08:	f2b6db60 	movk	x0, #0xb6db, lsl #16
 2000e0c:	f2db6da0 	movk	x0, #0xdb6d, lsl #32
 2000e10:	f2edb6c0 	movk	x0, #0x6db6, lsl #48
 2000e14:	9b007e73 	mul	x19, x19, x0
 2000e18:	2a1303e1 	mov	w1, w19
 2000e1c:	b0000020 	adrp	x0, 2005000 <vscnprintf+0x18>
 2000e20:	91312000 	add	x0, x0, #0xc48
 2000e24:	940010bb 	bl	2005110 <printf>
 2000e28:	2a1303e1 	mov	w1, w19
 2000e2c:	b0000020 	adrp	x0, 2005000 <vscnprintf+0x18>
 2000e30:	9131a000 	add	x0, x0, #0xc68
 2000e34:	940010b7 	bl	2005110 <printf>
 2000e38:	2a1303e2 	mov	w2, w19
 2000e3c:	aa1403e1 	mov	x1, x20
 2000e40:	aa1503e0 	mov	x0, x21
 2000e44:	97ffffb1 	bl	2000d08 <find_cmd_tbl>
 2000e48:	a9417bf5 	ldp	x21, x30, [sp, #16]
 2000e4c:	a8c253f3 	ldp	x19, x20, [sp], #32
 2000e50:	d65f03c0 	ret

0000000002000e54 <cmd_usage>:
 2000e54:	a9bf7bf3 	stp	x19, x30, [sp, #-16]!
 2000e58:	aa0003f3 	mov	x19, x0
 2000e5c:	f9401002 	ldr	x2, [x0, #32]
 2000e60:	f9400001 	ldr	x1, [x0]
 2000e64:	b0000020 	adrp	x0, 2005000 <vscnprintf+0x18>
 2000e68:	91166000 	add	x0, x0, #0x598
 2000e6c:	940010a9 	bl	2005110 <printf>
 2000e70:	b0000020 	adrp	x0, 2005000 <vscnprintf+0x18>
 2000e74:	9116a000 	add	x0, x0, #0x5a8
 2000e78:	940010a6 	bl	2005110 <printf>
 2000e7c:	f9401660 	ldr	x0, [x19, #40]
 2000e80:	b40001a0 	cbz	x0, 2000eb4 <cmd_usage+0x60>
 2000e84:	9400095c 	bl	20033f4 <puts>
 2000e88:	52800140 	mov	w0, #0xa                   	// #10
 2000e8c:	94000941 	bl	2003390 <putc>
 2000e90:	528001a0 	mov	w0, #0xd                   	// #13
 2000e94:	9400093f 	bl	2003390 <putc>
 2000e98:	52800140 	mov	w0, #0xa                   	// #10
 2000e9c:	9400093d 	bl	2003390 <putc>
 2000ea0:	528001a0 	mov	w0, #0xd                   	// #13
 2000ea4:	9400093b 	bl	2003390 <putc>
 2000ea8:	52800020 	mov	w0, #0x1                   	// #1
 2000eac:	a8c17bf3 	ldp	x19, x30, [sp], #16
 2000eb0:	d65f03c0 	ret
 2000eb4:	b0000020 	adrp	x0, 2005000 <vscnprintf+0x18>
 2000eb8:	9116c000 	add	x0, x0, #0x5b0
 2000ebc:	9400094e 	bl	20033f4 <puts>
 2000ec0:	17fffffa 	b	2000ea8 <cmd_usage+0x54>

0000000002000ec4 <_do_help>:
 2000ec4:	a9ba7bfd 	stp	x29, x30, [sp, #-96]!
 2000ec8:	910003fd 	mov	x29, sp
 2000ecc:	a90153f3 	stp	x19, x20, [sp, #16]
 2000ed0:	a9025bf5 	stp	x21, x22, [sp, #32]
 2000ed4:	a90363f7 	stp	x23, x24, [sp, #48]
 2000ed8:	a9046bf9 	stp	x25, x26, [sp, #64]
 2000edc:	a90573fb 	stp	x27, x28, [sp, #80]
 2000ee0:	aa0003f4 	mov	x20, x0
 2000ee4:	2a0103f5 	mov	w21, w1
 2000ee8:	7100049f 	cmp	w4, #0x1
 2000eec:	54000160 	b.eq	2000f18 <_do_help+0x54>  // b.none
 2000ef0:	52800017 	mov	w23, #0x0                   	// #0
 2000ef4:	54000b6d 	b.le	2001060 <_do_help+0x19c>
 2000ef8:	910020b3 	add	x19, x5, #0x8
 2000efc:	51000884 	sub	w4, w4, #0x2
 2000f00:	910040a5 	add	x5, x5, #0x10
 2000f04:	8b040cb6 	add	x22, x5, x4, lsl #3
 2000f08:	52800017 	mov	w23, #0x0                   	// #0
 2000f0c:	b0000038 	adrp	x24, 2005000 <vscnprintf+0x18>
 2000f10:	910d4318 	add	x24, x24, #0x350
 2000f14:	14000046 	b	200102c <_do_help+0x168>
 2000f18:	910003f8 	mov	x24, sp
 2000f1c:	937d7c20 	sbfiz	x0, x1, #3, #32
 2000f20:	91003c00 	add	x0, x0, #0xf
 2000f24:	927cec00 	and	x0, x0, #0xfffffffffffffff0
 2000f28:	cb2063ff 	sub	sp, sp, x0
 2000f2c:	910003f3 	mov	x19, sp
 2000f30:	7100003f 	cmp	w1, #0x0
 2000f34:	540008cd 	b.le	200104c <_do_help+0x188>
 2000f38:	d2800001 	mov	x1, #0x0                   	// #0
 2000f3c:	aa1403e0 	mov	x0, x20
 2000f40:	9100e294 	add	x20, x20, #0x38
 2000f44:	f8217a60 	str	x0, [x19, x1, lsl #3]
 2000f48:	91000421 	add	x1, x1, #0x1
 2000f4c:	6b0102bf 	cmp	w21, w1
 2000f50:	54ffff6c 	b.gt	2000f3c <_do_help+0x78>
 2000f54:	510006bb 	sub	w27, w21, #0x1
 2000f58:	7100037f 	cmp	w27, #0x0
 2000f5c:	540002ed 	b.le	2000fb8 <_do_help+0xf4>
 2000f60:	5280001a 	mov	w26, #0x0                   	// #0
 2000f64:	52800016 	mov	w22, #0x0                   	// #0
 2000f68:	5280001c 	mov	w28, #0x0                   	// #0
 2000f6c:	14000004 	b	2000f7c <_do_help+0xb8>
 2000f70:	6b1b029f 	cmp	w20, w27
 2000f74:	540001ca 	b.ge	2000fac <_do_help+0xe8>  // b.tcont
 2000f78:	2a1403f6 	mov	w22, w20
 2000f7c:	f876da77 	ldr	x23, [x19, w22, sxtw #3]
 2000f80:	110006d4 	add	w20, w22, #0x1
 2000f84:	f874da79 	ldr	x25, [x19, w20, sxtw #3]
 2000f88:	f9400321 	ldr	x1, [x25]
 2000f8c:	f94002e0 	ldr	x0, [x23]
 2000f90:	94000a85 	bl	20039a4 <strcmp>
 2000f94:	7100001f 	cmp	w0, #0x0
 2000f98:	54fffecd 	b.le	2000f70 <_do_help+0xac>
 2000f9c:	f836da79 	str	x25, [x19, w22, sxtw #3]
 2000fa0:	f834da77 	str	x23, [x19, w20, sxtw #3]
 2000fa4:	1100075a 	add	w26, w26, #0x1
 2000fa8:	17fffff2 	b	2000f70 <_do_help+0xac>
 2000fac:	3500011a 	cbnz	w26, 2000fcc <_do_help+0x108>
 2000fb0:	710002bf 	cmp	w21, #0x0
 2000fb4:	5400052d 	b.le	2001058 <_do_help+0x194>
 2000fb8:	d2800014 	mov	x20, #0x0                   	// #0
 2000fbc:	b0000036 	adrp	x22, 2005000 <vscnprintf+0x18>
 2000fc0:	910d02d6 	add	x22, x22, #0x340
 2000fc4:	52800157 	mov	w23, #0xa                   	// #10
 2000fc8:	1400000e 	b	2001000 <_do_help+0x13c>
 2000fcc:	5100077b 	sub	w27, w27, #0x1
 2000fd0:	7100037f 	cmp	w27, #0x0
 2000fd4:	54fffeed 	b.le	2000fb0 <_do_help+0xec>
 2000fd8:	5280001a 	mov	w26, #0x0                   	// #0
 2000fdc:	2a1c03f4 	mov	w20, w28
 2000fe0:	17ffffe6 	b	2000f78 <_do_help+0xb4>
 2000fe4:	f9400002 	ldr	x2, [x0]
 2000fe8:	2a1703e1 	mov	w1, w23
 2000fec:	aa1603e0 	mov	x0, x22
 2000ff0:	94001048 	bl	2005110 <printf>
 2000ff4:	91000694 	add	x20, x20, #0x1
 2000ff8:	6b1402bf 	cmp	w21, w20
 2000ffc:	540002ed 	b.le	2001058 <_do_help+0x194>
 2001000:	f8747a60 	ldr	x0, [x19, x20, lsl #3]
 2001004:	f9401003 	ldr	x3, [x0, #32]
 2001008:	b5fffee3 	cbnz	x3, 2000fe4 <_do_help+0x120>
 200100c:	17fffffa 	b	2000ff4 <_do_help+0x130>
 2001010:	f9400261 	ldr	x1, [x19]
 2001014:	aa1803e0 	mov	x0, x24
 2001018:	9400103e 	bl	2005110 <printf>
 200101c:	52800037 	mov	w23, #0x1                   	// #1
 2001020:	91002273 	add	x19, x19, #0x8
 2001024:	eb1302df 	cmp	x22, x19
 2001028:	540001c0 	b.eq	2001060 <_do_help+0x19c>  // b.none
 200102c:	2a1503e2 	mov	w2, w21
 2001030:	aa1403e1 	mov	x1, x20
 2001034:	f9400260 	ldr	x0, [x19]
 2001038:	97ffff34 	bl	2000d08 <find_cmd_tbl>
 200103c:	b4fffea0 	cbz	x0, 2001010 <_do_help+0x14c>
 2001040:	97ffff85 	bl	2000e54 <cmd_usage>
 2001044:	2a0002f7 	orr	w23, w23, w0
 2001048:	17fffff6 	b	2001020 <_do_help+0x15c>
 200104c:	5100043b 	sub	w27, w1, #0x1
 2001050:	7100037f 	cmp	w27, #0x0
 2001054:	54fff86c 	b.gt	2000f60 <_do_help+0x9c>
 2001058:	9100031f 	mov	sp, x24
 200105c:	52800017 	mov	w23, #0x0                   	// #0
 2001060:	2a1703e0 	mov	w0, w23
 2001064:	910003bf 	mov	sp, x29
 2001068:	a94153f3 	ldp	x19, x20, [sp, #16]
 200106c:	a9425bf5 	ldp	x21, x22, [sp, #32]
 2001070:	a94363f7 	ldp	x23, x24, [sp, #48]
 2001074:	a9446bf9 	ldp	x25, x26, [sp, #64]
 2001078:	a94573fb 	ldp	x27, x28, [sp, #80]
 200107c:	a8c67bfd 	ldp	x29, x30, [sp], #96
 2001080:	d65f03c0 	ret

0000000002001084 <complete_subcmdv>:
 2001084:	a9bb53f3 	stp	x19, x20, [sp, #-80]!
 2001088:	a9015bf5 	stp	x21, x22, [sp, #16]
 200108c:	f90023fe 	str	x30, [sp, #64]
 2001090:	937d7c35 	sbfiz	x21, x1, #3, #32
 2001094:	cb21c2b5 	sub	x21, x21, w1, sxtw
 2001098:	8b150c15 	add	x21, x0, x21, lsl #3
 200109c:	710004bf 	cmp	w5, #0x1
 20010a0:	54000dad 	b.le	2001254 <complete_subcmdv+0x1d0>
 20010a4:	a90263f7 	stp	x23, x24, [sp, #32]
 20010a8:	a9036bf9 	stp	x25, x26, [sp, #48]
 20010ac:	aa0003f3 	mov	x19, x0
 20010b0:	2a0203f4 	mov	w20, w2
 20010b4:	aa0303f8 	mov	x24, x3
 20010b8:	12001c99 	and	w25, w4, #0xff
 20010bc:	2a0503f7 	mov	w23, w5
 20010c0:	aa0603f6 	mov	x22, x6
 20010c4:	f90000df 	str	xzr, [x6]
 20010c8:	34000302 	cbz	w2, 2001128 <complete_subcmdv+0xa4>
 20010cc:	121a7b20 	and	w0, w25, #0xffffffdf
 20010d0:	72001c1f 	tst	w0, #0xff
 20010d4:	7a411840 	ccmp	w2, #0x1, #0x0, ne  // ne = any
 20010d8:	5400006c 	b.gt	20010e4 <complete_subcmdv+0x60>
 20010dc:	7100273f 	cmp	w25, #0x9
 20010e0:	54000641 	b.ne	20011a8 <complete_subcmdv+0x124>  // b.any
 20010e4:	2a0103e2 	mov	w2, w1
 20010e8:	aa1303e1 	mov	x1, x19
 20010ec:	f9400300 	ldr	x0, [x24]
 20010f0:	97ffff06 	bl	2000d08 <find_cmd_tbl>
 20010f4:	b4000500 	cbz	x0, 2001194 <complete_subcmdv+0x110>
 20010f8:	f9401805 	ldr	x5, [x0, #48]
 20010fc:	b40004c5 	cbz	x5, 2001194 <complete_subcmdv+0x110>
 2001100:	aa1603e4 	mov	x4, x22
 2001104:	2a1703e3 	mov	w3, w23
 2001108:	2a1903e2 	mov	w2, w25
 200110c:	aa1803e1 	mov	x1, x24
 2001110:	2a1403e0 	mov	w0, w20
 2001114:	d63f00a0 	blr	x5
 2001118:	2a0003f4 	mov	w20, w0
 200111c:	a94263f7 	ldp	x23, x24, [sp, #32]
 2001120:	a9436bf9 	ldp	x25, x26, [sp, #48]
 2001124:	14000017 	b	2001180 <complete_subcmdv+0xfc>
 2001128:	eb15001f 	cmp	x0, x21
 200112c:	54000240 	b.eq	2001174 <complete_subcmdv+0xf0>  // b.none
 2001130:	510008a0 	sub	w0, w5, #0x2
 2001134:	7100001f 	cmp	w0, #0x0
 2001138:	5400016d 	b.le	2001164 <complete_subcmdv+0xe0>
 200113c:	aa0603e0 	mov	x0, x6
 2001140:	510008b7 	sub	w23, w5, #0x2
 2001144:	11000694 	add	w20, w20, #0x1
 2001148:	f8438661 	ldr	x1, [x19], #56
 200114c:	f9000001 	str	x1, [x0]
 2001150:	eb1302bf 	cmp	x21, x19
 2001154:	54000100 	b.eq	2001174 <complete_subcmdv+0xf0>  // b.none
 2001158:	91002000 	add	x0, x0, #0x8
 200115c:	6b1402ff 	cmp	w23, w20
 2001160:	54ffff21 	b.ne	2001144 <complete_subcmdv+0xc0>  // b.any
 2001164:	90000020 	adrp	x0, 2005000 <vscnprintf+0x18>
 2001168:	91176000 	add	x0, x0, #0x5d8
 200116c:	f834dac0 	str	x0, [x22, w20, sxtw #3]
 2001170:	11000694 	add	w20, w20, #0x1
 2001174:	f834dadf 	str	xzr, [x22, w20, sxtw #3]
 2001178:	a94263f7 	ldp	x23, x24, [sp, #32]
 200117c:	a9436bf9 	ldp	x25, x26, [sp, #48]
 2001180:	2a1403e0 	mov	w0, w20
 2001184:	a9415bf5 	ldp	x21, x22, [sp, #16]
 2001188:	f94023fe 	ldr	x30, [sp, #64]
 200118c:	a8c553f3 	ldp	x19, x20, [sp], #80
 2001190:	d65f03c0 	ret
 2001194:	f90002df 	str	xzr, [x22]
 2001198:	52800014 	mov	w20, #0x0                   	// #0
 200119c:	a94263f7 	ldp	x23, x24, [sp, #32]
 20011a0:	a9436bf9 	ldp	x25, x26, [sp, #48]
 20011a4:	17fffff7 	b	2001180 <complete_subcmdv+0xfc>
 20011a8:	f9400079 	ldr	x25, [x3]
 20011ac:	528005c1 	mov	w1, #0x2e                  	// #46
 20011b0:	aa1903e0 	mov	x0, x25
 20011b4:	94000a15 	bl	2003a08 <strchr>
 20011b8:	4b190018 	sub	w24, w0, w25
 20011bc:	b40000e0 	cbz	x0, 20011d8 <complete_subcmdv+0x154>
 20011c0:	eb15027f 	cmp	x19, x21
 20011c4:	54000440 	b.eq	200124c <complete_subcmdv+0x1c8>  // b.none
 20011c8:	52800014 	mov	w20, #0x0                   	// #0
 20011cc:	93407f1a 	sxtw	x26, w24
 20011d0:	51000af7 	sub	w23, w23, #0x2
 20011d4:	1400000b 	b	2001200 <complete_subcmdv+0x17c>
 20011d8:	aa1903e0 	mov	x0, x25
 20011dc:	94000a16 	bl	2003a34 <strlen>
 20011e0:	2a0003f8 	mov	w24, w0
 20011e4:	17fffff7 	b	20011c0 <complete_subcmdv+0x13c>
 20011e8:	f9400260 	ldr	x0, [x19]
 20011ec:	f834dac0 	str	x0, [x22, w20, sxtw #3]
 20011f0:	11000694 	add	w20, w20, #0x1
 20011f4:	9100e273 	add	x19, x19, #0x38
 20011f8:	eb1302bf 	cmp	x21, x19
 20011fc:	54000200 	b.eq	200123c <complete_subcmdv+0x1b8>  // b.none
 2001200:	f9400260 	ldr	x0, [x19]
 2001204:	94000a0c 	bl	2003a34 <strlen>
 2001208:	6b00031f 	cmp	w24, w0
 200120c:	54ffff4c 	b.gt	20011f4 <complete_subcmdv+0x170>
 2001210:	aa1a03e2 	mov	x2, x26
 2001214:	f9400261 	ldr	x1, [x19]
 2001218:	aa1903e0 	mov	x0, x25
 200121c:	94000a79 	bl	2003c00 <memcmp>
 2001220:	35fffea0 	cbnz	w0, 20011f4 <complete_subcmdv+0x170>
 2001224:	6b1402ff 	cmp	w23, w20
 2001228:	54fffe0c 	b.gt	20011e8 <complete_subcmdv+0x164>
 200122c:	90000020 	adrp	x0, 2005000 <vscnprintf+0x18>
 2001230:	91176000 	add	x0, x0, #0x5d8
 2001234:	f834dac0 	str	x0, [x22, w20, sxtw #3]
 2001238:	11000694 	add	w20, w20, #0x1
 200123c:	f834dadf 	str	xzr, [x22, w20, sxtw #3]
 2001240:	a94263f7 	ldp	x23, x24, [sp, #32]
 2001244:	a9436bf9 	ldp	x25, x26, [sp, #48]
 2001248:	17ffffce 	b	2001180 <complete_subcmdv+0xfc>
 200124c:	52800014 	mov	w20, #0x0                   	// #0
 2001250:	17fffffb 	b	200123c <complete_subcmdv+0x1b8>
 2001254:	12800034 	mov	w20, #0xfffffffe            	// #-2
 2001258:	17ffffca 	b	2001180 <complete_subcmdv+0xfc>

000000000200125c <cmd_auto_complete>:
 200125c:	a9a653f3 	stp	x19, x20, [sp, #-416]!
 2001260:	a9015bf5 	stp	x21, x22, [sp, #16]
 2001264:	a90263f7 	stp	x23, x24, [sp, #32]
 2001268:	a9036bf9 	stp	x25, x26, [sp, #48]
 200126c:	a90473fb 	stp	x27, x28, [sp, #64]
 2001270:	f9002bfe 	str	x30, [sp, #80]
 2001274:	f90037e0 	str	x0, [sp, #104]
 2001278:	aa0103f6 	mov	x22, x1
 200127c:	aa0203f7 	mov	x23, x2
 2001280:	aa0303f8 	mov	x24, x3
 2001284:	b940005a 	ldr	w26, [x2]
 2001288:	b940007c 	ldr	w28, [x3]
 200128c:	90000021 	adrp	x1, 2005000 <vscnprintf+0x18>
 2001290:	91148021 	add	x1, x1, #0x520
 2001294:	940009c4 	bl	20039a4 <strcmp>
 2001298:	5280001b 	mov	w27, #0x0                   	// #0
 200129c:	34000120 	cbz	w0, 20012c0 <cmd_auto_complete+0x64>
 20012a0:	2a1b03e0 	mov	w0, w27
 20012a4:	a9415bf5 	ldp	x21, x22, [sp, #16]
 20012a8:	a94263f7 	ldp	x23, x24, [sp, #32]
 20012ac:	a9436bf9 	ldp	x25, x26, [sp, #48]
 20012b0:	a94473fb 	ldp	x27, x28, [sp, #64]
 20012b4:	f9402bfe 	ldr	x30, [sp, #80]
 20012b8:	a8da53f3 	ldp	x19, x20, [sp], #416
 20012bc:	d65f03c0 	ret
 20012c0:	2a0003f5 	mov	w21, w0
 20012c4:	aa1603e0 	mov	x0, x22
 20012c8:	940009db 	bl	2003a34 <strlen>
 20012cc:	aa0003f4 	mov	x20, x0
 20012d0:	b90067ff 	str	wzr, [sp, #100]
 20012d4:	7100001f 	cmp	w0, #0x0
 20012d8:	5400008d 	b.le	20012e8 <cmd_auto_complete+0x8c>
 20012dc:	51000400 	sub	w0, w0, #0x1
 20012e0:	3860cac0 	ldrb	w0, [x22, w0, sxtw]
 20012e4:	b90067e0 	str	w0, [sp, #100]
 20012e8:	f0000039 	adrp	x25, 2008000 <__image_copy_end+0xf90>
 20012ec:	91078339 	add	x25, x25, #0x1e0
 20012f0:	aa1603e1 	mov	x1, x22
 20012f4:	aa1903e0 	mov	x0, x25
 20012f8:	940009a5 	bl	200398c <strcpy>
 20012fc:	910463e1 	add	x1, sp, #0x118
 2001300:	2a1503f3 	mov	w19, w21
 2001304:	14000006 	b	200131c <cmd_auto_complete+0xc0>
 2001308:	340002e0 	cbz	w0, 2001364 <cmd_auto_complete+0x108>
 200130c:	3800173f 	strb	wzr, [x25], #1
 2001310:	91002021 	add	x1, x1, #0x8
 2001314:	7100427f 	cmp	w19, #0x10
 2001318:	54000680 	b.eq	20013e8 <cmd_auto_complete+0x18c>  // b.none
 200131c:	39400320 	ldrb	w0, [x25]
 2001320:	7100801f 	cmp	w0, #0x20
 2001324:	7a491804 	ccmp	w0, #0x9, #0x4, ne  // ne = any
 2001328:	540000a1 	b.ne	200133c <cmd_auto_complete+0xe0>  // b.any
 200132c:	38401f20 	ldrb	w0, [x25, #1]!
 2001330:	7100801f 	cmp	w0, #0x20
 2001334:	7a491804 	ccmp	w0, #0x9, #0x4, ne  // ne = any
 2001338:	54ffffa0 	b.eq	200132c <cmd_auto_complete+0xd0>  // b.none
 200133c:	34000140 	cbz	w0, 2001364 <cmd_auto_complete+0x108>
 2001340:	11000673 	add	w19, w19, #0x1
 2001344:	f9000039 	str	x25, [x1]
 2001348:	39400320 	ldrb	w0, [x25]
 200134c:	340000c0 	cbz	w0, 2001364 <cmd_auto_complete+0x108>
 2001350:	7100801f 	cmp	w0, #0x20
 2001354:	7a491804 	ccmp	w0, #0x9, #0x4, ne  // ne = any
 2001358:	54fffd80 	b.eq	2001308 <cmd_auto_complete+0xac>  // b.none
 200135c:	38401f20 	ldrb	w0, [x25, #1]!
 2001360:	35ffff80 	cbnz	w0, 2001350 <cmd_auto_complete+0xf4>
 2001364:	910463e0 	add	x0, sp, #0x118
 2001368:	f833d81f 	str	xzr, [x0, w19, sxtw #3]
 200136c:	b000003b 	adrp	x27, 2006000 <names.0+0x2c0>
 2001370:	913d637b 	add	x27, x27, #0xf58
 2001374:	d0000039 	adrp	x25, 2007000 <_rock_list_2_cmd_2_switch_el>
 2001378:	9101c339 	add	x25, x25, #0x70
 200137c:	cb1b0339 	sub	x25, x25, x27
 2001380:	9343ff39 	asr	x25, x25, #3
 2001384:	d28db6e0 	mov	x0, #0x6db7                	// #28087
 2001388:	f2b6db60 	movk	x0, #0xb6db, lsl #16
 200138c:	f2db6da0 	movk	x0, #0xdb6d, lsl #32
 2001390:	f2edb6c0 	movk	x0, #0x6db6, lsl #48
 2001394:	9b007f39 	mul	x25, x25, x0
 2001398:	2a1903e1 	mov	w1, w25
 200139c:	90000020 	adrp	x0, 2005000 <vscnprintf+0x18>
 20013a0:	91312000 	add	x0, x0, #0xc48
 20013a4:	94000f5b 	bl	2005110 <printf>
 20013a8:	9101e3e6 	add	x6, sp, #0x78
 20013ac:	52800285 	mov	w5, #0x14                  	// #20
 20013b0:	394193e4 	ldrb	w4, [sp, #100]
 20013b4:	910463e3 	add	x3, sp, #0x118
 20013b8:	2a1303e2 	mov	w2, w19
 20013bc:	2a1903e1 	mov	w1, w25
 20013c0:	aa1b03e0 	mov	x0, x27
 20013c4:	97ffff30 	bl	2001084 <complete_subcmdv>
 20013c8:	2a0003fb 	mov	w27, w0
 20013cc:	35000420 	cbnz	w0, 2001450 <cmd_auto_complete+0x1f4>
 20013d0:	7100067f 	cmp	w19, #0x1
 20013d4:	54fff66c 	b.gt	20012a0 <cmd_auto_complete+0x44>
 20013d8:	528000e0 	mov	w0, #0x7                   	// #7
 20013dc:	940007ed 	bl	2003390 <putc>
 20013e0:	5280003b 	mov	w27, #0x1                   	// #1
 20013e4:	17ffffaf 	b	20012a0 <cmd_auto_complete+0x44>
 20013e8:	f900cfff 	str	xzr, [sp, #408]
 20013ec:	b000003b 	adrp	x27, 2006000 <names.0+0x2c0>
 20013f0:	913d637b 	add	x27, x27, #0xf58
 20013f4:	d0000039 	adrp	x25, 2007000 <_rock_list_2_cmd_2_switch_el>
 20013f8:	9101c339 	add	x25, x25, #0x70
 20013fc:	cb1b0339 	sub	x25, x25, x27
 2001400:	9343ff39 	asr	x25, x25, #3
 2001404:	d28db6e0 	mov	x0, #0x6db7                	// #28087
 2001408:	f2b6db60 	movk	x0, #0xb6db, lsl #16
 200140c:	f2db6da0 	movk	x0, #0xdb6d, lsl #32
 2001410:	f2edb6c0 	movk	x0, #0x6db6, lsl #48
 2001414:	9b007f39 	mul	x25, x25, x0
 2001418:	2a1903e1 	mov	w1, w25
 200141c:	90000020 	adrp	x0, 2005000 <vscnprintf+0x18>
 2001420:	91312000 	add	x0, x0, #0xc48
 2001424:	94000f3b 	bl	2005110 <printf>
 2001428:	9101e3e6 	add	x6, sp, #0x78
 200142c:	52800285 	mov	w5, #0x14                  	// #20
 2001430:	394193e4 	ldrb	w4, [sp, #100]
 2001434:	910463e3 	add	x3, sp, #0x118
 2001438:	52800202 	mov	w2, #0x10                  	// #16
 200143c:	2a1903e1 	mov	w1, w25
 2001440:	aa1b03e0 	mov	x0, x27
 2001444:	97ffff10 	bl	2001084 <complete_subcmdv>
 2001448:	2a0003fb 	mov	w27, w0
 200144c:	34fff2a0 	cbz	w0, 20012a0 <cmd_auto_complete+0x44>
 2001450:	7100077f 	cmp	w27, #0x1
 2001454:	540002a0 	b.eq	20014a8 <cmd_auto_complete+0x24c>  // b.none
 2001458:	5400084c 	b.gt	2001560 <cmd_auto_complete+0x304>
 200145c:	90000020 	adrp	x0, 2005000 <vscnprintf+0x18>
 2001460:	9114c000 	add	x0, x0, #0x530
 2001464:	94000974 	bl	2003a34 <strlen>
 2001468:	2a0003fc 	mov	w28, w0
 200146c:	90000020 	adrp	x0, 2005000 <vscnprintf+0x18>
 2001470:	913be000 	add	x0, x0, #0xef8
 2001474:	94000970 	bl	2003a34 <strlen>
 2001478:	aa0003f7 	mov	x23, x0
 200147c:	2a0003fb 	mov	w27, w0
 2001480:	f9403fe0 	ldr	x0, [sp, #120]
 2001484:	b4000f20 	cbz	x0, 2001668 <cmd_auto_complete+0x40c>
 2001488:	9101e3f5 	add	x21, sp, #0x78
 200148c:	528009d4 	mov	w20, #0x4e                  	// #78
 2001490:	90000038 	adrp	x24, 2005000 <vscnprintf+0x18>
 2001494:	913be318 	add	x24, x24, #0xef8
 2001498:	90000039 	adrp	x25, 2005000 <vscnprintf+0x18>
 200149c:	9114e339 	add	x25, x25, #0x538
 20014a0:	9000003a 	adrp	x26, 2005000 <vscnprintf+0x18>
 20014a4:	14000066 	b	200163c <cmd_auto_complete+0x3e0>
 20014a8:	b94067e1 	ldr	w1, [sp, #100]
 20014ac:	121a7820 	and	w0, w1, #0xffffffdf
 20014b0:	34000060 	cbz	w0, 20014bc <cmd_auto_complete+0x260>
 20014b4:	7100243f 	cmp	w1, #0x9
 20014b8:	54000481 	b.ne	2001548 <cmd_auto_complete+0x2ec>  // b.any
 20014bc:	f9403ff3 	ldr	x19, [sp, #120]
 20014c0:	8b35c273 	add	x19, x19, w21, sxtw
 20014c4:	aa1303e0 	mov	x0, x19
 20014c8:	9400095b 	bl	2003a34 <strlen>
 20014cc:	2a0003f9 	mov	w25, w0
 20014d0:	90000023 	adrp	x3, 2005000 <vscnprintf+0x18>
 20014d4:	913be063 	add	x3, x3, #0xef8
 20014d8:	b4fffc33 	cbz	x19, 200145c <cmd_auto_complete+0x200>
 20014dc:	0b1b0320 	add	w0, w25, w27
 20014e0:	0b00035a 	add	w26, w26, w0
 20014e4:	710ff75f 	cmp	w26, #0x3fd
 20014e8:	5400094c 	b.gt	2001610 <cmd_auto_complete+0x3b4>
 20014ec:	8b34c2d4 	add	x20, x22, w20, sxtw
 20014f0:	7100033f 	cmp	w25, #0x0
 20014f4:	5400010d 	b.le	2001514 <cmd_auto_complete+0x2b8>
 20014f8:	d2800001 	mov	x1, #0x0                   	// #0
 20014fc:	38616a62 	ldrb	w2, [x19, x1]
 2001500:	38216a82 	strb	w2, [x20, x1]
 2001504:	91000421 	add	x1, x1, #0x1
 2001508:	6b01033f 	cmp	w25, w1
 200150c:	54ffff8c 	b.gt	20014fc <cmd_auto_complete+0x2a0>
 2001510:	8b394294 	add	x20, x20, w25, uxtw
 2001514:	b4000bc3 	cbz	x3, 200168c <cmd_auto_complete+0x430>
 2001518:	7100037f 	cmp	w27, #0x0
 200151c:	5400006d 	b.le	2001528 <cmd_auto_complete+0x2cc>
 2001520:	39400061 	ldrb	w1, [x3]
 2001524:	38001681 	strb	w1, [x20], #1
 2001528:	3900029f 	strb	wzr, [x20]
 200152c:	0b00039c 	add	w28, w28, w0
 2001530:	cb20c280 	sub	x0, x20, w0, sxtw
 2001534:	940007b0 	bl	20033f4 <puts>
 2001538:	b90002fa 	str	w26, [x23]
 200153c:	b900031c 	str	w28, [x24]
 2001540:	5280003b 	mov	w27, #0x1                   	// #1
 2001544:	17ffff57 	b	20012a0 <cmd_auto_complete+0x44>
 2001548:	51000673 	sub	w19, w19, #0x1
 200154c:	910463e0 	add	x0, sp, #0x118
 2001550:	f873d800 	ldr	x0, [x0, w19, sxtw #3]
 2001554:	94000938 	bl	2003a34 <strlen>
 2001558:	2a0003f5 	mov	w21, w0
 200155c:	17ffffd8 	b	20014bc <cmd_auto_complete+0x260>
 2001560:	f9403ffb 	ldr	x27, [sp, #120]
 2001564:	b4fff7db 	cbz	x27, 200145c <cmd_auto_complete+0x200>
 2001568:	aa1b03e0 	mov	x0, x27
 200156c:	94000932 	bl	2003a34 <strlen>
 2001570:	2a0003f9 	mov	w25, w0
 2001574:	f94043e0 	ldr	x0, [sp, #128]
 2001578:	910223e5 	add	x5, sp, #0x88
 200157c:	b5000260 	cbnz	x0, 20015c8 <cmd_auto_complete+0x36c>
 2001580:	34fff6f9 	cbz	w25, 200145c <cmd_auto_complete+0x200>
 2001584:	b94067e2 	ldr	w2, [sp, #100]
 2001588:	121a7841 	and	w1, w2, #0xffffffdf
 200158c:	2a1503e0 	mov	w0, w21
 2001590:	34000061 	cbz	w1, 200159c <cmd_auto_complete+0x340>
 2001594:	7100245f 	cmp	w2, #0x9
 2001598:	54000321 	b.ne	20015fc <cmd_auto_complete+0x3a0>  // b.any
 200159c:	4b000339 	sub	w25, w25, w0
 20015a0:	7100033f 	cmp	w25, #0x0
 20015a4:	54fff5cd 	b.le	200145c <cmd_auto_complete+0x200>
 20015a8:	f9403ff3 	ldr	x19, [sp, #120]
 20015ac:	8b20c273 	add	x19, x19, w0, sxtw
 20015b0:	2a1503fb 	mov	w27, w21
 20015b4:	d2800003 	mov	x3, #0x0                   	// #0
 20015b8:	17ffffc8 	b	20014d8 <cmd_auto_complete+0x27c>
 20015bc:	4b1b0039 	sub	w25, w1, w27
 20015c0:	f84084a0 	ldr	x0, [x5], #8
 20015c4:	b4fffde0 	cbz	x0, 2001580 <cmd_auto_complete+0x324>
 20015c8:	8b394004 	add	x4, x0, w25, uxtw
 20015cc:	aa1b03e1 	mov	x1, x27
 20015d0:	7100033f 	cmp	w25, #0x0
 20015d4:	54ffff4d 	b.le	20015bc <cmd_auto_complete+0x360>
 20015d8:	39400003 	ldrb	w3, [x0]
 20015dc:	39400022 	ldrb	w2, [x1]
 20015e0:	6b02007f 	cmp	w3, w2
 20015e4:	54fffec1 	b.ne	20015bc <cmd_auto_complete+0x360>  // b.any
 20015e8:	91000400 	add	x0, x0, #0x1
 20015ec:	91000421 	add	x1, x1, #0x1
 20015f0:	eb04001f 	cmp	x0, x4
 20015f4:	54ffff21 	b.ne	20015d8 <cmd_auto_complete+0x37c>  // b.any
 20015f8:	17fffff1 	b	20015bc <cmd_auto_complete+0x360>
 20015fc:	51000673 	sub	w19, w19, #0x1
 2001600:	910463e0 	add	x0, sp, #0x118
 2001604:	f873d800 	ldr	x0, [x0, w19, sxtw #3]
 2001608:	9400090b 	bl	2003a34 <strlen>
 200160c:	17ffffe4 	b	200159c <cmd_auto_complete+0x340>
 2001610:	528000e0 	mov	w0, #0x7                   	// #7
 2001614:	9400075f 	bl	2003390 <putc>
 2001618:	5280003b 	mov	w27, #0x1                   	// #1
 200161c:	17ffff21 	b	20012a0 <cmd_auto_complete+0x44>
 2001620:	aa1803e0 	mov	x0, x24
 2001624:	94000774 	bl	20033f4 <puts>
 2001628:	f84086a0 	ldr	x0, [x21], #8
 200162c:	94000772 	bl	20033f4 <puts>
 2001630:	0b130294 	add	w20, w20, w19
 2001634:	f94002a0 	ldr	x0, [x21]
 2001638:	b4000180 	cbz	x0, 2001668 <cmd_auto_complete+0x40c>
 200163c:	940008fe 	bl	2003a34 <strlen>
 2001640:	0b170013 	add	w19, w0, w23
 2001644:	0b140260 	add	w0, w19, w20
 2001648:	7101341f 	cmp	w0, #0x4d
 200164c:	54fffead 	b.le	2001620 <cmd_auto_complete+0x3c4>
 2001650:	aa1903e0 	mov	x0, x25
 2001654:	94000768 	bl	20033f4 <puts>
 2001658:	9114c340 	add	x0, x26, #0x530
 200165c:	94000766 	bl	20033f4 <puts>
 2001660:	4b1b0394 	sub	w20, w28, w27
 2001664:	17fffff1 	b	2001628 <cmd_auto_complete+0x3cc>
 2001668:	90000020 	adrp	x0, 2005000 <vscnprintf+0x18>
 200166c:	9132a000 	add	x0, x0, #0xca8
 2001670:	94000ea8 	bl	2005110 <printf>
 2001674:	f94037e0 	ldr	x0, [sp, #104]
 2001678:	9400075f 	bl	20033f4 <puts>
 200167c:	aa1603e0 	mov	x0, x22
 2001680:	9400075d 	bl	20033f4 <puts>
 2001684:	5280003b 	mov	w27, #0x1                   	// #1
 2001688:	17ffff06 	b	20012a0 <cmd_auto_complete+0x44>
 200168c:	3900029f 	strb	wzr, [x20]
 2001690:	0b00039c 	add	w28, w28, w0
 2001694:	cb20c280 	sub	x0, x20, w0, sxtw
 2001698:	94000757 	bl	20033f4 <puts>
 200169c:	528000e0 	mov	w0, #0x7                   	// #7
 20016a0:	9400073c 	bl	2003390 <putc>
 20016a4:	17ffffa5 	b	2001538 <cmd_auto_complete+0x2dc>

00000000020016a8 <cmd_always_repeatable>:
 20016a8:	f81f0ffe 	str	x30, [sp, #-16]!
 20016ac:	52800025 	mov	w5, #0x1                   	// #1
 20016b0:	b9000085 	str	w5, [x4]
 20016b4:	f9400c04 	ldr	x4, [x0, #24]
 20016b8:	d63f0080 	blr	x4
 20016bc:	f84107fe 	ldr	x30, [sp], #16
 20016c0:	d65f03c0 	ret

00000000020016c4 <cmd_never_repeatable>:
 20016c4:	f81f0ffe 	str	x30, [sp, #-16]!
 20016c8:	b900009f 	str	wzr, [x4]
 20016cc:	f9400c04 	ldr	x4, [x0, #24]
 20016d0:	d63f0080 	blr	x4
 20016d4:	f84107fe 	ldr	x30, [sp], #16
 20016d8:	d65f03c0 	ret

00000000020016dc <cmd_process>:
 20016dc:	a9bc53f3 	stp	x19, x20, [sp, #-64]!
 20016e0:	a9015bf5 	stp	x21, x22, [sp, #16]
 20016e4:	a9027bf7 	stp	x23, x30, [sp, #32]
 20016e8:	2a0003f7 	mov	w23, w0
 20016ec:	2a0103f5 	mov	w21, w1
 20016f0:	aa0203f4 	mov	x20, x2
 20016f4:	aa0303f6 	mov	x22, x3
 20016f8:	f9400040 	ldr	x0, [x2]
 20016fc:	97fffdb9 	bl	2000de0 <find_cmd>
 2001700:	b4000120 	cbz	x0, 2001724 <cmd_process+0x48>
 2001704:	aa0003f3 	mov	x19, x0
 2001708:	b9400800 	ldr	w0, [x0, #8]
 200170c:	6b15001f 	cmp	w0, w21
 2001710:	5400016a 	b.ge	200173c <cmd_process+0x60>  // b.tcont
 2001714:	aa1303e0 	mov	x0, x19
 2001718:	97fffdcf 	bl	2000e54 <cmd_usage>
 200171c:	2a0003f4 	mov	w20, w0
 2001720:	14000016 	b	2001778 <cmd_process+0x9c>
 2001724:	f9400281 	ldr	x1, [x20]
 2001728:	90000020 	adrp	x0, 2005000 <vscnprintf+0x18>
 200172c:	91150000 	add	x0, x0, #0x540
 2001730:	94000e78 	bl	2005110 <printf>
 2001734:	52800034 	mov	w20, #0x1                   	// #1
 2001738:	14000010 	b	2001778 <cmd_process+0x9c>
 200173c:	f9400a65 	ldr	x5, [x19, #16]
 2001740:	9100f3e4 	add	x4, sp, #0x3c
 2001744:	aa1403e3 	mov	x3, x20
 2001748:	2a1503e2 	mov	w2, w21
 200174c:	2a1703e1 	mov	w1, w23
 2001750:	aa1303e0 	mov	x0, x19
 2001754:	d63f00a0 	blr	x5
 2001758:	2a0003f4 	mov	w20, w0
 200175c:	37f80180 	tbnz	w0, #31, 200178c <cmd_process+0xb0>
 2001760:	b94002c0 	ldr	w0, [x22]
 2001764:	b9403fe1 	ldr	w1, [sp, #60]
 2001768:	0a010000 	and	w0, w0, w1
 200176c:	b90002c0 	str	w0, [x22]
 2001770:	7100069f 	cmp	w20, #0x1
 2001774:	54fffd00 	b.eq	2001714 <cmd_process+0x38>  // b.none
 2001778:	2a1403e0 	mov	w0, w20
 200177c:	a9415bf5 	ldp	x21, x22, [sp, #16]
 2001780:	a9427bf7 	ldp	x23, x30, [sp, #32]
 2001784:	a8c453f3 	ldp	x19, x20, [sp], #64
 2001788:	d65f03c0 	ret
 200178c:	2a0003e1 	mov	w1, w0
 2001790:	90000020 	adrp	x0, 2005000 <vscnprintf+0x18>
 2001794:	9115a000 	add	x0, x0, #0x568
 2001798:	94000e5e 	bl	2005110 <printf>
 200179c:	f9400273 	ldr	x19, [x19]
 20017a0:	2a1403e0 	mov	w0, w20
 20017a4:	940007fa 	bl	200378c <errno_str>
 20017a8:	aa0003e2 	mov	x2, x0
 20017ac:	aa1303e1 	mov	x1, x19
 20017b0:	90000020 	adrp	x0, 2005000 <vscnprintf+0x18>
 20017b4:	91162000 	add	x0, x0, #0x588
 20017b8:	94000e56 	bl	2005110 <printf>
 20017bc:	b94002c0 	ldr	w0, [x22]
 20017c0:	b9403fe1 	ldr	w1, [sp, #60]
 20017c4:	0a010000 	and	w0, w0, w1
 20017c8:	b90002c0 	str	w0, [x22]
 20017cc:	17ffffeb 	b	2001778 <cmd_process+0x9c>

00000000020017d0 <cread_add_char>:
 20017d0:	a9bd53f3 	stp	x19, x20, [sp, #-48]!
 20017d4:	a9015bf5 	stp	x21, x22, [sp, #16]
 20017d8:	a9027bf7 	stp	x23, x30, [sp, #32]
 20017dc:	12001c17 	and	w23, w0, #0xff
 20017e0:	aa0203f4 	mov	x20, x2
 20017e4:	aa0403f6 	mov	x22, x4
 20017e8:	35000461 	cbnz	w1, 2001874 <cread_add_char+0xa4>
 20017ec:	f9400041 	ldr	x1, [x2]
 20017f0:	f9400060 	ldr	x0, [x3]
 20017f4:	eb00003f 	cmp	x1, x0
 20017f8:	54000820 	b.eq	20018fc <cread_add_char+0x12c>  // b.none
 20017fc:	f9400280 	ldr	x0, [x20]
 2001800:	38206ad7 	strb	w23, [x22, x0]
 2001804:	f9400282 	ldr	x2, [x20]
 2001808:	8b0202c2 	add	x2, x22, x2
 200180c:	52800021 	mov	w1, #0x1                   	// #1
 2001810:	90000020 	adrp	x0, 2005000 <vscnprintf+0x18>
 2001814:	91178000 	add	x0, x0, #0x5e0
 2001818:	94000e3e 	bl	2005110 <printf>
 200181c:	f9400280 	ldr	x0, [x20]
 2001820:	91000400 	add	x0, x0, #0x1
 2001824:	f9000280 	str	x0, [x20]
 2001828:	1400002e 	b	20018e0 <cread_add_char+0x110>
 200182c:	d10006b3 	sub	x19, x21, #0x1
 2001830:	91000420 	add	x0, x1, #0x1
 2001834:	aa1303e2 	mov	x2, x19
 2001838:	8b0102c1 	add	x1, x22, x1
 200183c:	8b0002c0 	add	x0, x22, x0
 2001840:	940008e0 	bl	2003bc0 <memmove>
 2001844:	f9400280 	ldr	x0, [x20]
 2001848:	38206ad7 	strb	w23, [x22, x0]
 200184c:	f9400282 	ldr	x2, [x20]
 2001850:	8b0202c2 	add	x2, x22, x2
 2001854:	2a1503e1 	mov	w1, w21
 2001858:	90000020 	adrp	x0, 2005000 <vscnprintf+0x18>
 200185c:	91178000 	add	x0, x0, #0x5e0
 2001860:	94000e2c 	bl	2005110 <printf>
 2001864:	f9400280 	ldr	x0, [x20]
 2001868:	91000400 	add	x0, x0, #0x1
 200186c:	f9000280 	str	x0, [x20]
 2001870:	14000017 	b	20018cc <cread_add_char+0xfc>
 2001874:	f9400075 	ldr	x21, [x3]
 2001878:	d10004a5 	sub	x5, x5, #0x1
 200187c:	eb1500bf 	cmp	x5, x21
 2001880:	54000463 	b.cc	200190c <cread_add_char+0x13c>  // b.lo, b.ul, b.last
 2001884:	910006b5 	add	x21, x21, #0x1
 2001888:	f9000075 	str	x21, [x3]
 200188c:	f9400281 	ldr	x1, [x20]
 2001890:	cb0102b5 	sub	x21, x21, x1
 2001894:	f10006bf 	cmp	x21, #0x1
 2001898:	54fffca8 	b.hi	200182c <cread_add_char+0x5c>  // b.pmore
 200189c:	38216ad7 	strb	w23, [x22, x1]
 20018a0:	f9400282 	ldr	x2, [x20]
 20018a4:	8b0202c2 	add	x2, x22, x2
 20018a8:	2a1503e1 	mov	w1, w21
 20018ac:	90000020 	adrp	x0, 2005000 <vscnprintf+0x18>
 20018b0:	91178000 	add	x0, x0, #0x5e0
 20018b4:	94000e17 	bl	2005110 <printf>
 20018b8:	f9400280 	ldr	x0, [x20]
 20018bc:	91000400 	add	x0, x0, #0x1
 20018c0:	f9000280 	str	x0, [x20]
 20018c4:	f10006b3 	subs	x19, x21, #0x1
 20018c8:	540000c0 	b.eq	20018e0 <cread_add_char+0x110>  // b.none
 20018cc:	52800114 	mov	w20, #0x8                   	// #8
 20018d0:	2a1403e0 	mov	w0, w20
 20018d4:	940006af 	bl	2003390 <putc>
 20018d8:	f1000673 	subs	x19, x19, #0x1
 20018dc:	54ffffa1 	b.ne	20018d0 <cread_add_char+0x100>  // b.any
 20018e0:	a9415bf5 	ldp	x21, x22, [sp, #16]
 20018e4:	a9427bf7 	ldp	x23, x30, [sp, #32]
 20018e8:	a8c353f3 	ldp	x19, x20, [sp], #48
 20018ec:	d65f03c0 	ret
 20018f0:	91000400 	add	x0, x0, #0x1
 20018f4:	f9000060 	str	x0, [x3]
 20018f8:	17ffffc1 	b	20017fc <cread_add_char+0x2c>
 20018fc:	f9400060 	ldr	x0, [x3]
 2001900:	d10004a5 	sub	x5, x5, #0x1
 2001904:	eb05001f 	cmp	x0, x5
 2001908:	54ffff49 	b.ls	20018f0 <cread_add_char+0x120>  // b.plast
 200190c:	528000e0 	mov	w0, #0x7                   	// #7
 2001910:	940006a0 	bl	2003390 <putc>
 2001914:	17fffff3 	b	20018e0 <cread_add_char+0x110>

0000000002001918 <cli_readline_into_buffer>:
 2001918:	a9b953f3 	stp	x19, x20, [sp, #-112]!
 200191c:	a9015bf5 	stp	x21, x22, [sp, #16]
 2001920:	a90263f7 	stp	x23, x24, [sp, #32]
 2001924:	a9036bf9 	stp	x25, x26, [sp, #48]
 2001928:	a9047bfb 	stp	x27, x30, [sp, #64]
 200192c:	aa0003f6 	mov	x22, x0
 2001930:	aa0103f4 	mov	x20, x1
 2001934:	90000060 	adrp	x0, 200d000 <hist_lines+0x4610>
 2001938:	b94ab000 	ldr	w0, [x0, #2736]
 200193c:	34000220 	cbz	w0, 2001980 <cli_readline_into_buffer+0x68>
 2001940:	b4000076 	cbz	x22, 200194c <cli_readline_into_buffer+0x34>
 2001944:	aa1603e0 	mov	x0, x22
 2001948:	940006ab 	bl	20033f4 <puts>
 200194c:	f9002fff 	str	xzr, [sp, #88]
 2001950:	f90033ff 	str	xzr, [sp, #96]
 2001954:	aa1403e0 	mov	x0, x20
 2001958:	94000837 	bl	2003a34 <strlen>
 200195c:	35000420 	cbnz	w0, 20019e0 <cli_readline_into_buffer+0xc8>
 2001960:	52800013 	mov	w19, #0x0                   	// #0
 2001964:	52800035 	mov	w21, #0x1                   	// #1
 2001968:	528000f9 	mov	w25, #0x7                   	// #7
 200196c:	90000037 	adrp	x23, 2005000 <vscnprintf+0x18>
 2001970:	911782f7 	add	x23, x23, #0x5e0
 2001974:	90000038 	adrp	x24, 2005000 <vscnprintf+0x18>
 2001978:	91164318 	add	x24, x24, #0x590
 200197c:	140000a3 	b	2001c08 <cli_readline_into_buffer+0x2f0>
 2001980:	90000060 	adrp	x0, 200d000 <hist_lines+0x4610>
 2001984:	b90aa81f 	str	wzr, [x0, #2728]
 2001988:	f0000020 	adrp	x0, 2008000 <__image_copy_end+0xf90>
 200198c:	b909ec1f 	str	wzr, [x0, #2540]
 2001990:	b0000020 	adrp	x0, 2006000 <names.0+0x2c0>
 2001994:	12800001 	mov	w1, #0xffffffff            	// #-1
 2001998:	b90e8001 	str	w1, [x0, #3712]
 200199c:	90000060 	adrp	x0, 200d000 <hist_lines+0x4610>
 20019a0:	b90aac1f 	str	wzr, [x0, #2732]
 20019a4:	f0000020 	adrp	x0, 2008000 <__image_copy_end+0xf90>
 20019a8:	9127c000 	add	x0, x0, #0x9f0
 20019ac:	90000061 	adrp	x1, 200d000 <hist_lines+0x4610>
 20019b0:	91282021 	add	x1, x1, #0xa08
 20019b4:	91401402 	add	x2, x0, #0x5, lsl #12
 20019b8:	91005042 	add	x2, x2, #0x14
 20019bc:	f8008420 	str	x0, [x1], #8
 20019c0:	3900001f 	strb	wzr, [x0]
 20019c4:	91100400 	add	x0, x0, #0x401
 20019c8:	eb00005f 	cmp	x2, x0
 20019cc:	54ffff81 	b.ne	20019bc <cli_readline_into_buffer+0xa4>  // b.any
 20019d0:	90000060 	adrp	x0, 200d000 <hist_lines+0x4610>
 20019d4:	52800021 	mov	w1, #0x1                   	// #1
 20019d8:	b90ab001 	str	w1, [x0, #2736]
 20019dc:	17ffffd9 	b	2001940 <cli_readline_into_buffer+0x28>
 20019e0:	51000413 	sub	w19, w0, #0x1
 20019e4:	91000673 	add	x19, x19, #0x1
 20019e8:	8b130293 	add	x19, x20, x19
 20019ec:	aa1403f5 	mov	x21, x20
 20019f0:	d2808018 	mov	x24, #0x400                 	// #1024
 20019f4:	52800037 	mov	w23, #0x1                   	// #1
 20019f8:	aa1803e5 	mov	x5, x24
 20019fc:	aa1403e4 	mov	x4, x20
 2001a00:	910183e3 	add	x3, sp, #0x60
 2001a04:	910163e2 	add	x2, sp, #0x58
 2001a08:	2a1703e1 	mov	w1, w23
 2001a0c:	384016a0 	ldrb	w0, [x21], #1
 2001a10:	97ffff70 	bl	20017d0 <cread_add_char>
 2001a14:	eb1302bf 	cmp	x21, x19
 2001a18:	54ffff01 	b.ne	20019f8 <cli_readline_into_buffer+0xe0>  // b.any
 2001a1c:	17ffffd1 	b	2001960 <cli_readline_into_buffer+0x48>
 2001a20:	52800140 	mov	w0, #0xa                   	// #10
 2001a24:	9400065b 	bl	2003390 <putc>
 2001a28:	528001a0 	mov	w0, #0xd                   	// #13
 2001a2c:	94000659 	bl	2003390 <putc>
 2001a30:	f94033f3 	ldr	x19, [sp, #96]
 2001a34:	38336a9f 	strb	wzr, [x20, x19]
 2001a38:	39400280 	ldrb	w0, [x20]
 2001a3c:	7100841f 	cmp	w0, #0x21
 2001a40:	7a401804 	ccmp	w0, #0x0, #0x4, ne  // ne = any
 2001a44:	54003661 	b.ne	2002110 <cli_readline_into_buffer+0x7f8>  // b.any
 2001a48:	f0000020 	adrp	x0, 2008000 <__image_copy_end+0xf90>
 2001a4c:	b949ec01 	ldr	w1, [x0, #2540]
 2001a50:	b0000020 	adrp	x0, 2006000 <names.0+0x2c0>
 2001a54:	b90e8001 	str	w1, [x0, #3712]
 2001a58:	2a1303e0 	mov	w0, w19
 2001a5c:	a9415bf5 	ldp	x21, x22, [sp, #16]
 2001a60:	a94263f7 	ldp	x23, x24, [sp, #32]
 2001a64:	a9436bf9 	ldp	x25, x26, [sp, #48]
 2001a68:	a9447bfb 	ldp	x27, x30, [sp, #64]
 2001a6c:	a8c753f3 	ldp	x19, x20, [sp], #112
 2001a70:	d65f03c0 	ret
 2001a74:	71016cdf 	cmp	w6, #0x5b
 2001a78:	528009e0 	mov	w0, #0x4f                  	// #79
 2001a7c:	7a4010c4 	ccmp	w6, w0, #0x4, ne  // ne = any
 2001a80:	54000560 	b.eq	2001b2c <cli_readline_into_buffer+0x214>  // b.none
 2001a84:	9101a3e0 	add	x0, sp, #0x68
 2001a88:	3833c806 	strb	w6, [x0, w19, sxtw]
 2001a8c:	1400004f 	b	2001bc8 <cli_readline_into_buffer+0x2b0>
 2001a90:	12001c00 	and	w0, w0, #0xff
 2001a94:	71010c1f 	cmp	w0, #0x43
 2001a98:	54002980 	b.eq	2001fc8 <cli_readline_into_buffer+0x6b0>  // b.none
 2001a9c:	5400020d 	b.le	2001adc <cli_readline_into_buffer+0x1c4>
 2001aa0:	7101181f 	cmp	w0, #0x46
 2001aa4:	54001760 	b.eq	2001d90 <cli_readline_into_buffer+0x478>  // b.none
 2001aa8:	7101201f 	cmp	w0, #0x48
 2001aac:	54001580 	b.eq	2001d5c <cli_readline_into_buffer+0x444>  // b.none
 2001ab0:	7101101f 	cmp	w0, #0x44
 2001ab4:	54000861 	b.ne	2001bc0 <cli_readline_into_buffer+0x2a8>  // b.any
 2001ab8:	f9402fe0 	ldr	x0, [sp, #88]
 2001abc:	52800013 	mov	w19, #0x0                   	// #0
 2001ac0:	b4000a40 	cbz	x0, 2001c08 <cli_readline_into_buffer+0x2f0>
 2001ac4:	52800100 	mov	w0, #0x8                   	// #8
 2001ac8:	94000632 	bl	2003390 <putc>
 2001acc:	f9402fe0 	ldr	x0, [sp, #88]
 2001ad0:	d1000400 	sub	x0, x0, #0x1
 2001ad4:	f9002fe0 	str	x0, [sp, #88]
 2001ad8:	1400004c 	b	2001c08 <cli_readline_into_buffer+0x2f0>
 2001adc:	7101041f 	cmp	w0, #0x41
 2001ae0:	54003500 	b.eq	2002180 <cli_readline_into_buffer+0x868>  // b.none
 2001ae4:	540000ed 	b.le	2001b00 <cli_readline_into_buffer+0x1e8>
 2001ae8:	528001c1 	mov	w1, #0xe                   	// #14
 2001aec:	7101081f 	cmp	w0, #0x42
 2001af0:	54000681 	b.ne	2001bc0 <cli_readline_into_buffer+0x2a8>  // b.any
 2001af4:	7100403f 	cmp	w1, #0x10
 2001af8:	54001be1 	b.ne	2001e74 <cli_readline_into_buffer+0x55c>  // b.any
 2001afc:	140000b6 	b	2001dd4 <cli_readline_into_buffer+0x4bc>
 2001b00:	5100c401 	sub	w1, w0, #0x31
 2001b04:	71001c3f 	cmp	w1, #0x7
 2001b08:	540005c8 	b.hi	2001bc0 <cli_readline_into_buffer+0x2a8>  // b.pmore
 2001b0c:	d2800021 	mov	x1, #0x1                   	// #1
 2001b10:	9ac02020 	lsl	x0, x1, x0
 2001b14:	d2e03341 	mov	x1, #0x19a000000000000     	// #115404740451368960
 2001b18:	ea01001f 	tst	x0, x1
 2001b1c:	54000520 	b.eq	2001bc0 <cli_readline_into_buffer+0x2a8>  // b.none
 2001b20:	3941a7e0 	ldrb	w0, [sp, #105]
 2001b24:	71016c1f 	cmp	w0, #0x5b
 2001b28:	54fffae1 	b.ne	2001a84 <cli_readline_into_buffer+0x16c>  // b.any
 2001b2c:	9101a3e0 	add	x0, sp, #0x68
 2001b30:	3833c806 	strb	w6, [x0, w19, sxtw]
 2001b34:	11000673 	add	w19, w19, #0x1
 2001b38:	14000034 	b	2001c08 <cli_readline_into_buffer+0x2f0>
 2001b3c:	3941abe0 	ldrb	w0, [sp, #106]
 2001b40:	7100d01f 	cmp	w0, #0x34
 2001b44:	54001260 	b.eq	2001d90 <cli_readline_into_buffer+0x478>  // b.none
 2001b48:	54000348 	b.hi	2001bb0 <cli_readline_into_buffer+0x298>  // b.pmore
 2001b4c:	7100c41f 	cmp	w0, #0x31
 2001b50:	54001060 	b.eq	2001d5c <cli_readline_into_buffer+0x444>  // b.none
 2001b54:	7100cc1f 	cmp	w0, #0x33
 2001b58:	54000341 	b.ne	2001bc0 <cli_readline_into_buffer+0x2a8>  // b.any
 2001b5c:	f9402fe0 	ldr	x0, [sp, #88]
 2001b60:	f94033e1 	ldr	x1, [sp, #96]
 2001b64:	52800013 	mov	w19, #0x0                   	// #0
 2001b68:	eb01001f 	cmp	x0, x1
 2001b6c:	540004e2 	b.cs	2001c08 <cli_readline_into_buffer+0x2f0>  // b.hs, b.nlast
 2001b70:	d1000421 	sub	x1, x1, #0x1
 2001b74:	eb000033 	subs	x19, x1, x0
 2001b78:	540023e1 	b.ne	2001ff4 <cli_readline_into_buffer+0x6dc>  // b.any
 2001b7c:	52800400 	mov	w0, #0x20                  	// #32
 2001b80:	94000604 	bl	2003390 <putc>
 2001b84:	5280011a 	mov	w26, #0x8                   	// #8
 2001b88:	2a1a03e0 	mov	w0, w26
 2001b8c:	94000601 	bl	2003390 <putc>
 2001b90:	d1000673 	sub	x19, x19, #0x1
 2001b94:	b100067f 	cmn	x19, #0x1
 2001b98:	54ffff81 	b.ne	2001b88 <cli_readline_into_buffer+0x270>  // b.any
 2001b9c:	f94033e0 	ldr	x0, [sp, #96]
 2001ba0:	d1000400 	sub	x0, x0, #0x1
 2001ba4:	f90033e0 	str	x0, [sp, #96]
 2001ba8:	52800013 	mov	w19, #0x0                   	// #0
 2001bac:	14000017 	b	2001c08 <cli_readline_into_buffer+0x2f0>
 2001bb0:	7100dc1f 	cmp	w0, #0x37
 2001bb4:	54000d40 	b.eq	2001d5c <cli_readline_into_buffer+0x444>  // b.none
 2001bb8:	7100e01f 	cmp	w0, #0x38
 2001bbc:	54000ea0 	b.eq	2001d90 <cli_readline_into_buffer+0x478>  // b.none
 2001bc0:	9101a3e0 	add	x0, sp, #0x68
 2001bc4:	3833c806 	strb	w6, [x0, w19, sxtw]
 2001bc8:	2a1303fa 	mov	w26, w19
 2001bcc:	9100075a 	add	x26, x26, #0x1
 2001bd0:	9101a3e0 	add	x0, sp, #0x68
 2001bd4:	8b1a001a 	add	x26, x0, x26
 2001bd8:	aa0003f3 	mov	x19, x0
 2001bdc:	d280801b 	mov	x27, #0x400                 	// #1024
 2001be0:	aa1b03e5 	mov	x5, x27
 2001be4:	aa1403e4 	mov	x4, x20
 2001be8:	910183e3 	add	x3, sp, #0x60
 2001bec:	910163e2 	add	x2, sp, #0x58
 2001bf0:	2a1503e1 	mov	w1, w21
 2001bf4:	38401660 	ldrb	w0, [x19], #1
 2001bf8:	97fffef6 	bl	20017d0 <cread_add_char>
 2001bfc:	eb1a027f 	cmp	x19, x26
 2001c00:	54ffff01 	b.ne	2001be0 <cli_readline_into_buffer+0x2c8>  // b.any
 2001c04:	52800013 	mov	w19, #0x0                   	// #0
 2001c08:	940005f2 	bl	20033d0 <getc>
 2001c0c:	72001c06 	ands	w6, w0, #0xff
 2001c10:	54ffffc0 	b.eq	2001c08 <cli_readline_into_buffer+0x2f0>  // b.none
 2001c14:	710028df 	cmp	w6, #0xa
 2001c18:	7a4d18c4 	ccmp	w6, #0xd, #0x4, ne  // ne = any
 2001c1c:	54fff020 	b.eq	2001a20 <cli_readline_into_buffer+0x108>  // b.none
 2001c20:	340001d3 	cbz	w19, 2001c58 <cli_readline_into_buffer+0x340>
 2001c24:	7100067f 	cmp	w19, #0x1
 2001c28:	54fff260 	b.eq	2001a74 <cli_readline_into_buffer+0x15c>  // b.none
 2001c2c:	71000a7f 	cmp	w19, #0x2
 2001c30:	54fff300 	b.eq	2001a90 <cli_readline_into_buffer+0x178>  // b.none
 2001c34:	7101f8df 	cmp	w6, #0x7e
 2001c38:	7a430a60 	ccmp	w19, #0x3, #0x0, eq  // eq = none
 2001c3c:	54fff800 	b.eq	2001b3c <cli_readline_into_buffer+0x224>  // b.none
 2001c40:	9101a3e0 	add	x0, sp, #0x68
 2001c44:	3833c806 	strb	w6, [x0, w19, sxtw]
 2001c48:	3100067f 	cmn	w19, #0x1
 2001c4c:	54fffbe1 	b.ne	2001bc8 <cli_readline_into_buffer+0x2b0>  // b.any
 2001c50:	52800013 	mov	w19, #0x0                   	// #0
 2001c54:	17ffffed 	b	2001c08 <cli_readline_into_buffer+0x2f0>
 2001c58:	710024df 	cmp	w6, #0x9
 2001c5c:	540021c0 	b.eq	2002094 <cli_readline_into_buffer+0x77c>  // b.none
 2001c60:	54000249 	b.ls	2001ca8 <cli_readline_into_buffer+0x390>  // b.plast
 2001c64:	710054df 	cmp	w6, #0x15
 2001c68:	54001720 	b.eq	2001f4c <cli_readline_into_buffer+0x634>  // b.none
 2001c6c:	54000aa9 	b.ls	2001dc0 <cli_readline_into_buffer+0x4a8>  // b.plast
 2001c70:	71006cdf 	cmp	w6, #0x1b
 2001c74:	54001a20 	b.eq	2001fb8 <cli_readline_into_buffer+0x6a0>  // b.none
 2001c78:	54001669 	b.ls	2001f44 <cli_readline_into_buffer+0x62c>  // b.plast
 2001c7c:	120018c0 	and	w0, w6, #0x7f
 2001c80:	7101fc1f 	cmp	w0, #0x7f
 2001c84:	54000200 	b.eq	2001cc4 <cli_readline_into_buffer+0x3ac>  // b.none
 2001c88:	d2808005 	mov	x5, #0x400                 	// #1024
 2001c8c:	aa1403e4 	mov	x4, x20
 2001c90:	910183e3 	add	x3, sp, #0x60
 2001c94:	910163e2 	add	x2, sp, #0x58
 2001c98:	2a1503e1 	mov	w1, w21
 2001c9c:	2a0603e0 	mov	w0, w6
 2001ca0:	97fffecc 	bl	20017d0 <cread_add_char>
 2001ca4:	17ffffd9 	b	2001c08 <cli_readline_into_buffer+0x2f0>
 2001ca8:	710010df 	cmp	w6, #0x4
 2001cac:	54fff580 	b.eq	2001b5c <cli_readline_into_buffer+0x244>  // b.none
 2001cb0:	54000449 	b.ls	2001d38 <cli_readline_into_buffer+0x420>  // b.plast
 2001cb4:	710018df 	cmp	w6, #0x6
 2001cb8:	54001880 	b.eq	2001fc8 <cli_readline_into_buffer+0x6b0>  // b.none
 2001cbc:	710020df 	cmp	w6, #0x8
 2001cc0:	54000641 	b.ne	2001d88 <cli_readline_into_buffer+0x470>  // b.any
 2001cc4:	f9402fe1 	ldr	x1, [sp, #88]
 2001cc8:	b4fffa01 	cbz	x1, 2001c08 <cli_readline_into_buffer+0x2f0>
 2001ccc:	f94033fa 	ldr	x26, [sp, #96]
 2001cd0:	cb01035a 	sub	x26, x26, x1
 2001cd4:	d1000420 	sub	x0, x1, #0x1
 2001cd8:	f9002fe0 	str	x0, [sp, #88]
 2001cdc:	aa1a03e2 	mov	x2, x26
 2001ce0:	8b010281 	add	x1, x20, x1
 2001ce4:	8b000280 	add	x0, x20, x0
 2001ce8:	940007b6 	bl	2003bc0 <memmove>
 2001cec:	52800100 	mov	w0, #0x8                   	// #8
 2001cf0:	940005a8 	bl	2003390 <putc>
 2001cf4:	f9402fe2 	ldr	x2, [sp, #88]
 2001cf8:	8b020282 	add	x2, x20, x2
 2001cfc:	2a1a03e1 	mov	w1, w26
 2001d00:	aa1703e0 	mov	x0, x23
 2001d04:	94000d03 	bl	2005110 <printf>
 2001d08:	52800400 	mov	w0, #0x20                  	// #32
 2001d0c:	940005a1 	bl	2003390 <putc>
 2001d10:	5280011b 	mov	w27, #0x8                   	// #8
 2001d14:	2a1b03e0 	mov	w0, w27
 2001d18:	9400059e 	bl	2003390 <putc>
 2001d1c:	aa1a03e0 	mov	x0, x26
 2001d20:	d100075a 	sub	x26, x26, #0x1
 2001d24:	b5ffff80 	cbnz	x0, 2001d14 <cli_readline_into_buffer+0x3fc>
 2001d28:	f94033e0 	ldr	x0, [sp, #96]
 2001d2c:	d1000400 	sub	x0, x0, #0x1
 2001d30:	f90033e0 	str	x0, [sp, #96]
 2001d34:	17ffffb5 	b	2001c08 <cli_readline_into_buffer+0x2f0>
 2001d38:	710008df 	cmp	w6, #0x2
 2001d3c:	54ffebe0 	b.eq	2001ab8 <cli_readline_into_buffer+0x1a0>  // b.none
 2001d40:	71000cdf 	cmp	w6, #0x3
 2001d44:	54000081 	b.ne	2001d54 <cli_readline_into_buffer+0x43c>  // b.any
 2001d48:	3900029f 	strb	wzr, [x20]
 2001d4c:	12800000 	mov	w0, #0xffffffff            	// #-1
 2001d50:	17ffff43 	b	2001a5c <cli_readline_into_buffer+0x144>
 2001d54:	710004df 	cmp	w6, #0x1
 2001d58:	54fff981 	b.ne	2001c88 <cli_readline_into_buffer+0x370>  // b.any
 2001d5c:	f9402fe0 	ldr	x0, [sp, #88]
 2001d60:	52800113 	mov	w19, #0x8                   	// #8
 2001d64:	b4001260 	cbz	x0, 2001fb0 <cli_readline_into_buffer+0x698>
 2001d68:	2a1303e0 	mov	w0, w19
 2001d6c:	94000589 	bl	2003390 <putc>
 2001d70:	f9402fe0 	ldr	x0, [sp, #88]
 2001d74:	d1000400 	sub	x0, x0, #0x1
 2001d78:	f9002fe0 	str	x0, [sp, #88]
 2001d7c:	b5ffff60 	cbnz	x0, 2001d68 <cli_readline_into_buffer+0x450>
 2001d80:	52800013 	mov	w19, #0x0                   	// #0
 2001d84:	17ffffa1 	b	2001c08 <cli_readline_into_buffer+0x2f0>
 2001d88:	710014df 	cmp	w6, #0x5
 2001d8c:	54fff7e1 	b.ne	2001c88 <cli_readline_into_buffer+0x370>  // b.any
 2001d90:	f9402fe0 	ldr	x0, [sp, #88]
 2001d94:	f94033e1 	ldr	x1, [sp, #96]
 2001d98:	52800013 	mov	w19, #0x0                   	// #0
 2001d9c:	eb01001f 	cmp	x0, x1
 2001da0:	54fff342 	b.cs	2001c08 <cli_readline_into_buffer+0x2f0>  // b.hs, b.nlast
 2001da4:	8b000282 	add	x2, x20, x0
 2001da8:	4b000021 	sub	w1, w1, w0
 2001dac:	aa1703e0 	mov	x0, x23
 2001db0:	94000cd8 	bl	2005110 <printf>
 2001db4:	f94033e0 	ldr	x0, [sp, #96]
 2001db8:	f9002fe0 	str	x0, [sp, #88]
 2001dbc:	17ffff93 	b	2001c08 <cli_readline_into_buffer+0x2f0>
 2001dc0:	71003cdf 	cmp	w6, #0xf
 2001dc4:	540012e0 	b.eq	2002020 <cli_readline_into_buffer+0x708>  // b.none
 2001dc8:	54000289 	b.ls	2001e18 <cli_readline_into_buffer+0x500>  // b.plast
 2001dcc:	710040df 	cmp	w6, #0x10
 2001dd0:	54fff5c1 	b.ne	2001c88 <cli_readline_into_buffer+0x370>  // b.any
 2001dd4:	b0000020 	adrp	x0, 2006000 <names.0+0x2c0>
 2001dd8:	b94e8001 	ldr	w1, [x0, #3712]
 2001ddc:	37f81341 	tbnz	w1, #31, 2002044 <cli_readline_into_buffer+0x72c>
 2001de0:	51000420 	sub	w0, w1, #0x1
 2001de4:	b0000022 	adrp	x2, 2006000 <names.0+0x2c0>
 2001de8:	b90e8040 	str	w0, [x2, #3712]
 2001dec:	37f811e0 	tbnz	w0, #31, 2002028 <cli_readline_into_buffer+0x710>
 2001df0:	b0000020 	adrp	x0, 2006000 <names.0+0x2c0>
 2001df4:	b94e8002 	ldr	w2, [x0, #3712]
 2001df8:	f0000020 	adrp	x0, 2008000 <__image_copy_end+0xf90>
 2001dfc:	b949ec00 	ldr	w0, [x0, #2540]
 2001e00:	6b00005f 	cmp	w2, w0
 2001e04:	540011c0 	b.eq	200203c <cli_readline_into_buffer+0x724>  // b.none
 2001e08:	90000060 	adrp	x0, 200d000 <hist_lines+0x4610>
 2001e0c:	91282000 	add	x0, x0, #0xa08
 2001e10:	f862d813 	ldr	x19, [x0, w2, sxtw #3]
 2001e14:	1400002f 	b	2001ed0 <cli_readline_into_buffer+0x5b8>
 2001e18:	71002cdf 	cmp	w6, #0xb
 2001e1c:	54000281 	b.ne	2001e6c <cli_readline_into_buffer+0x554>  // b.any
 2001e20:	f9402fe0 	ldr	x0, [sp, #88]
 2001e24:	f94033e1 	ldr	x1, [sp, #96]
 2001e28:	eb01001f 	cmp	x0, x1
 2001e2c:	54ffeee2 	b.cs	2001c08 <cli_readline_into_buffer+0x2f0>  // b.hs, b.nlast
 2001e30:	aa1803e2 	mov	x2, x24
 2001e34:	4b000021 	sub	w1, w1, w0
 2001e38:	90000020 	adrp	x0, 2005000 <vscnprintf+0x18>
 2001e3c:	910f8000 	add	x0, x0, #0x3e0
 2001e40:	94000cb4 	bl	2005110 <printf>
 2001e44:	5280011a 	mov	w26, #0x8                   	// #8
 2001e48:	2a1a03e0 	mov	w0, w26
 2001e4c:	94000551 	bl	2003390 <putc>
 2001e50:	f94033e0 	ldr	x0, [sp, #96]
 2001e54:	d1000400 	sub	x0, x0, #0x1
 2001e58:	f90033e0 	str	x0, [sp, #96]
 2001e5c:	f9402fe1 	ldr	x1, [sp, #88]
 2001e60:	eb01001f 	cmp	x0, x1
 2001e64:	54ffff28 	b.hi	2001e48 <cli_readline_into_buffer+0x530>  // b.pmore
 2001e68:	17ffff68 	b	2001c08 <cli_readline_into_buffer+0x2f0>
 2001e6c:	710038df 	cmp	w6, #0xe
 2001e70:	54fff0c1 	b.ne	2001c88 <cli_readline_into_buffer+0x370>  // b.any
 2001e74:	b0000020 	adrp	x0, 2006000 <names.0+0x2c0>
 2001e78:	b94e8000 	ldr	w0, [x0, #3712]
 2001e7c:	37f80e40 	tbnz	w0, #31, 2002044 <cli_readline_into_buffer+0x72c>
 2001e80:	f0000021 	adrp	x1, 2008000 <__image_copy_end+0xf90>
 2001e84:	b949ec21 	ldr	w1, [x1, #2540]
 2001e88:	6b01001f 	cmp	w0, w1
 2001e8c:	54000dc0 	b.eq	2002044 <cli_readline_into_buffer+0x72c>  // b.none
 2001e90:	11000400 	add	w0, w0, #0x1
 2001e94:	b0000022 	adrp	x2, 2006000 <names.0+0x2c0>
 2001e98:	b90e8040 	str	w0, [x2, #3712]
 2001e9c:	90000062 	adrp	x2, 200d000 <hist_lines+0x4610>
 2001ea0:	b94aa842 	ldr	w2, [x2, #2728]
 2001ea4:	6b02001f 	cmp	w0, w2
 2001ea8:	5400006d 	b.le	2001eb4 <cli_readline_into_buffer+0x59c>
 2001eac:	b0000020 	adrp	x0, 2006000 <names.0+0x2c0>
 2001eb0:	b90e801f 	str	wzr, [x0, #3712]
 2001eb4:	b0000020 	adrp	x0, 2006000 <names.0+0x2c0>
 2001eb8:	b94e8002 	ldr	w2, [x0, #3712]
 2001ebc:	6b02003f 	cmp	w1, w2
 2001ec0:	54000ca0 	b.eq	2002054 <cli_readline_into_buffer+0x73c>  // b.none
 2001ec4:	90000060 	adrp	x0, 200d000 <hist_lines+0x4610>
 2001ec8:	91282000 	add	x0, x0, #0xa08
 2001ecc:	f862d813 	ldr	x19, [x0, w2, sxtw #3]
 2001ed0:	b4000bb3 	cbz	x19, 2002044 <cli_readline_into_buffer+0x72c>
 2001ed4:	f9402fe0 	ldr	x0, [sp, #88]
 2001ed8:	5280011a 	mov	w26, #0x8                   	// #8
 2001edc:	b40000e0 	cbz	x0, 2001ef8 <cli_readline_into_buffer+0x5e0>
 2001ee0:	2a1a03e0 	mov	w0, w26
 2001ee4:	9400052b 	bl	2003390 <putc>
 2001ee8:	f9402fe0 	ldr	x0, [sp, #88]
 2001eec:	d1000400 	sub	x0, x0, #0x1
 2001ef0:	f9002fe0 	str	x0, [sp, #88]
 2001ef4:	b5ffff60 	cbnz	x0, 2001ee0 <cli_readline_into_buffer+0x5c8>
 2001ef8:	f94033e1 	ldr	x1, [sp, #96]
 2001efc:	b5000b01 	cbnz	x1, 200205c <cli_readline_into_buffer+0x744>
 2001f00:	aa1303e1 	mov	x1, x19
 2001f04:	aa1403e0 	mov	x0, x20
 2001f08:	940006a1 	bl	200398c <strcpy>
 2001f0c:	aa1403e0 	mov	x0, x20
 2001f10:	940006c9 	bl	2003a34 <strlen>
 2001f14:	f90033e0 	str	x0, [sp, #96]
 2001f18:	f9402fe1 	ldr	x1, [sp, #88]
 2001f1c:	52800013 	mov	w19, #0x0                   	// #0
 2001f20:	eb01001f 	cmp	x0, x1
 2001f24:	54ffe729 	b.ls	2001c08 <cli_readline_into_buffer+0x2f0>  // b.plast
 2001f28:	8b010282 	add	x2, x20, x1
 2001f2c:	4b010001 	sub	w1, w0, w1
 2001f30:	aa1703e0 	mov	x0, x23
 2001f34:	94000c77 	bl	2005110 <printf>
 2001f38:	f94033e0 	ldr	x0, [sp, #96]
 2001f3c:	f9002fe0 	str	x0, [sp, #88]
 2001f40:	17ffff32 	b	2001c08 <cli_readline_into_buffer+0x2f0>
 2001f44:	710060df 	cmp	w6, #0x18
 2001f48:	54ffea01 	b.ne	2001c88 <cli_readline_into_buffer+0x370>  // b.any
 2001f4c:	f9402fe0 	ldr	x0, [sp, #88]
 2001f50:	5280011a 	mov	w26, #0x8                   	// #8
 2001f54:	b40000e0 	cbz	x0, 2001f70 <cli_readline_into_buffer+0x658>
 2001f58:	2a1a03e0 	mov	w0, w26
 2001f5c:	9400050d 	bl	2003390 <putc>
 2001f60:	f9402fe0 	ldr	x0, [sp, #88]
 2001f64:	d1000400 	sub	x0, x0, #0x1
 2001f68:	f9002fe0 	str	x0, [sp, #88]
 2001f6c:	b5ffff60 	cbnz	x0, 2001f58 <cli_readline_into_buffer+0x640>
 2001f70:	f94033e1 	ldr	x1, [sp, #96]
 2001f74:	b4ffe4a1 	cbz	x1, 2001c08 <cli_readline_into_buffer+0x2f0>
 2001f78:	aa1803e2 	mov	x2, x24
 2001f7c:	90000020 	adrp	x0, 2005000 <vscnprintf+0x18>
 2001f80:	910f8000 	add	x0, x0, #0x3e0
 2001f84:	94000c63 	bl	2005110 <printf>
 2001f88:	5280011a 	mov	w26, #0x8                   	// #8
 2001f8c:	2a1a03e0 	mov	w0, w26
 2001f90:	94000500 	bl	2003390 <putc>
 2001f94:	f94033e0 	ldr	x0, [sp, #96]
 2001f98:	d1000400 	sub	x0, x0, #0x1
 2001f9c:	f90033e0 	str	x0, [sp, #96]
 2001fa0:	f9402fe1 	ldr	x1, [sp, #88]
 2001fa4:	eb01001f 	cmp	x0, x1
 2001fa8:	54ffff28 	b.hi	2001f8c <cli_readline_into_buffer+0x674>  // b.pmore
 2001fac:	17ffff17 	b	2001c08 <cli_readline_into_buffer+0x2f0>
 2001fb0:	52800013 	mov	w19, #0x0                   	// #0
 2001fb4:	17ffff15 	b	2001c08 <cli_readline_into_buffer+0x2f0>
 2001fb8:	52800360 	mov	w0, #0x1b                  	// #27
 2001fbc:	3901a3e0 	strb	w0, [sp, #104]
 2001fc0:	52800033 	mov	w19, #0x1                   	// #1
 2001fc4:	17ffff11 	b	2001c08 <cli_readline_into_buffer+0x2f0>
 2001fc8:	f9402fe0 	ldr	x0, [sp, #88]
 2001fcc:	52800013 	mov	w19, #0x0                   	// #0
 2001fd0:	f94033e1 	ldr	x1, [sp, #96]
 2001fd4:	eb01001f 	cmp	x0, x1
 2001fd8:	54ffe182 	b.cs	2001c08 <cli_readline_into_buffer+0x2f0>  // b.hs, b.nlast
 2001fdc:	38606a80 	ldrb	w0, [x20, x0]
 2001fe0:	940004ec 	bl	2003390 <putc>
 2001fe4:	f9402fe0 	ldr	x0, [sp, #88]
 2001fe8:	91000400 	add	x0, x0, #0x1
 2001fec:	f9002fe0 	str	x0, [sp, #88]
 2001ff0:	17ffff06 	b	2001c08 <cli_readline_into_buffer+0x2f0>
 2001ff4:	91000401 	add	x1, x0, #0x1
 2001ff8:	aa1303e2 	mov	x2, x19
 2001ffc:	8b010281 	add	x1, x20, x1
 2002000:	8b000280 	add	x0, x20, x0
 2002004:	940006ef 	bl	2003bc0 <memmove>
 2002008:	f9402fe2 	ldr	x2, [sp, #88]
 200200c:	8b020282 	add	x2, x20, x2
 2002010:	2a1303e1 	mov	w1, w19
 2002014:	aa1703e0 	mov	x0, x23
 2002018:	94000c3e 	bl	2005110 <printf>
 200201c:	17fffed8 	b	2001b7c <cli_readline_into_buffer+0x264>
 2002020:	520002b5 	eor	w21, w21, #0x1
 2002024:	17fffef9 	b	2001c08 <cli_readline_into_buffer+0x2f0>
 2002028:	f0000040 	adrp	x0, 200d000 <hist_lines+0x4610>
 200202c:	b94aa802 	ldr	w2, [x0, #2728]
 2002030:	90000020 	adrp	x0, 2006000 <names.0+0x2c0>
 2002034:	b90e8002 	str	w2, [x0, #3712]
 2002038:	17ffff6e 	b	2001df0 <cli_readline_into_buffer+0x4d8>
 200203c:	90000020 	adrp	x0, 2006000 <names.0+0x2c0>
 2002040:	b90e8001 	str	w1, [x0, #3712]
 2002044:	2a1903e0 	mov	w0, w25
 2002048:	940004d2 	bl	2003390 <putc>
 200204c:	52800013 	mov	w19, #0x0                   	// #0
 2002050:	17fffeee 	b	2001c08 <cli_readline_into_buffer+0x2f0>
 2002054:	aa1803f3 	mov	x19, x24
 2002058:	17ffff9f 	b	2001ed4 <cli_readline_into_buffer+0x5bc>
 200205c:	aa1803e2 	mov	x2, x24
 2002060:	f0000000 	adrp	x0, 2005000 <vscnprintf+0x18>
 2002064:	910f8000 	add	x0, x0, #0x3e0
 2002068:	94000c2a 	bl	2005110 <printf>
 200206c:	5280011a 	mov	w26, #0x8                   	// #8
 2002070:	2a1a03e0 	mov	w0, w26
 2002074:	940004c7 	bl	2003390 <putc>
 2002078:	f94033e0 	ldr	x0, [sp, #96]
 200207c:	d1000400 	sub	x0, x0, #0x1
 2002080:	f90033e0 	str	x0, [sp, #96]
 2002084:	f9402fe1 	ldr	x1, [sp, #88]
 2002088:	eb01001f 	cmp	x0, x1
 200208c:	54ffff28 	b.hi	2002070 <cli_readline_into_buffer+0x758>  // b.pmore
 2002090:	17ffff9c 	b	2001f00 <cli_readline_into_buffer+0x5e8>
 2002094:	f9402fe0 	ldr	x0, [sp, #88]
 2002098:	f94033e1 	ldr	x1, [sp, #96]
 200209c:	eb01001f 	cmp	x0, x1
 20020a0:	54000082 	b.cs	20020b0 <cli_readline_into_buffer+0x798>  // b.hs, b.nlast
 20020a4:	2a1903e0 	mov	w0, w25
 20020a8:	940004ba 	bl	2003390 <putc>
 20020ac:	17fffed7 	b	2001c08 <cli_readline_into_buffer+0x2f0>
 20020b0:	38206a9f 	strb	wzr, [x20, x0]
 20020b4:	aa1603e0 	mov	x0, x22
 20020b8:	9400065f 	bl	2003a34 <strlen>
 20020bc:	f94033e1 	ldr	x1, [sp, #96]
 20020c0:	0b000021 	add	w1, w1, w0
 20020c4:	b90057e1 	str	w1, [sp, #84]
 20020c8:	f9402fe0 	ldr	x0, [sp, #88]
 20020cc:	b90053e0 	str	w0, [sp, #80]
 20020d0:	910153e3 	add	x3, sp, #0x54
 20020d4:	910143e2 	add	x2, sp, #0x50
 20020d8:	aa1403e1 	mov	x1, x20
 20020dc:	aa1603e0 	mov	x0, x22
 20020e0:	97fffc5f 	bl	200125c <cmd_auto_complete>
 20020e4:	34ffd920 	cbz	w0, 2001c08 <cli_readline_into_buffer+0x2f0>
 20020e8:	f9402fe1 	ldr	x1, [sp, #88]
 20020ec:	b94053e0 	ldr	w0, [sp, #80]
 20020f0:	4b010000 	sub	w0, w0, w1
 20020f4:	93407c00 	sxtw	x0, w0
 20020f8:	8b000021 	add	x1, x1, x0
 20020fc:	f9002fe1 	str	x1, [sp, #88]
 2002100:	f94033e1 	ldr	x1, [sp, #96]
 2002104:	8b000020 	add	x0, x1, x0
 2002108:	f90033e0 	str	x0, [sp, #96]
 200210c:	17fffebf 	b	2001c08 <cli_readline_into_buffer+0x2f0>
 2002110:	d0000035 	adrp	x21, 2008000 <__image_copy_end+0xf90>
 2002114:	b989eea2 	ldrsw	x2, [x21, #2540]
 2002118:	aa1403e1 	mov	x1, x20
 200211c:	f0000040 	adrp	x0, 200d000 <hist_lines+0x4610>
 2002120:	91282000 	add	x0, x0, #0xa08
 2002124:	f8627800 	ldr	x0, [x0, x2, lsl #3]
 2002128:	94000619 	bl	200398c <strcpy>
 200212c:	b949eea0 	ldr	w0, [x21, #2540]
 2002130:	11000400 	add	w0, w0, #0x1
 2002134:	71004c1f 	cmp	w0, #0x13
 2002138:	540001ec 	b.gt	2002174 <cli_readline_into_buffer+0x85c>
 200213c:	b909eea0 	str	w0, [x21, #2540]
 2002140:	d0000020 	adrp	x0, 2008000 <__image_copy_end+0xf90>
 2002144:	b949ec00 	ldr	w0, [x0, #2540]
 2002148:	f0000041 	adrp	x1, 200d000 <hist_lines+0x4610>
 200214c:	b94aa821 	ldr	w1, [x1, #2728]
 2002150:	6b01001f 	cmp	w0, w1
 2002154:	5400006d 	b.le	2002160 <cli_readline_into_buffer+0x848>
 2002158:	f0000041 	adrp	x1, 200d000 <hist_lines+0x4610>
 200215c:	b90aa820 	str	w0, [x1, #2728]
 2002160:	f0000041 	adrp	x1, 200d000 <hist_lines+0x4610>
 2002164:	b94aac20 	ldr	w0, [x1, #2732]
 2002168:	11000400 	add	w0, w0, #0x1
 200216c:	b90aac20 	str	w0, [x1, #2732]
 2002170:	17fffe36 	b	2001a48 <cli_readline_into_buffer+0x130>
 2002174:	d0000020 	adrp	x0, 2008000 <__image_copy_end+0xf90>
 2002178:	b909ec1f 	str	wzr, [x0, #2540]
 200217c:	17fffff1 	b	2002140 <cli_readline_into_buffer+0x828>
 2002180:	52800201 	mov	w1, #0x10                  	// #16
 2002184:	17fffe5c 	b	2001af4 <cli_readline_into_buffer+0x1dc>

0000000002002188 <cli_readline>:
 2002188:	f81f0ffe 	str	x30, [sp, #-16]!
 200218c:	d0000021 	adrp	x1, 2008000 <__image_copy_end+0xf90>
 2002190:	3917a03f 	strb	wzr, [x1, #1512]
 2002194:	52800002 	mov	w2, #0x0                   	// #0
 2002198:	9117a021 	add	x1, x1, #0x5e8
 200219c:	97fffddf 	bl	2001918 <cli_readline_into_buffer>
 20021a0:	f84107fe 	ldr	x30, [sp], #16
 20021a4:	d65f03c0 	ret

00000000020021a8 <cli_simple_parse_line>:
 20021a8:	a9be53f3 	stp	x19, x20, [sp, #-32]!
 20021ac:	a9017bf5 	stp	x21, x30, [sp, #16]
 20021b0:	aa0003f3 	mov	x19, x0
 20021b4:	aa0103f5 	mov	x21, x1
 20021b8:	aa0003e2 	mov	x2, x0
 20021bc:	f0000001 	adrp	x1, 2005000 <vscnprintf+0x18>
 20021c0:	9108a021 	add	x1, x1, #0x228
 20021c4:	f0000000 	adrp	x0, 2005000 <vscnprintf+0x18>
 20021c8:	910fe000 	add	x0, x0, #0x3f8
 20021cc:	940005a9 	bl	2003870 <printk>
 20021d0:	d2800002 	mov	x2, #0x0                   	// #0
 20021d4:	1400000e 	b	200220c <cli_simple_parse_line+0x64>
 20021d8:	f834dabf 	str	xzr, [x21, w20, sxtw #3]
 20021dc:	2a1403e2 	mov	w2, w20
 20021e0:	f0000001 	adrp	x1, 2005000 <vscnprintf+0x18>
 20021e4:	9108a021 	add	x1, x1, #0x228
 20021e8:	f0000000 	adrp	x0, 2005000 <vscnprintf+0x18>
 20021ec:	91102000 	add	x0, x0, #0x408
 20021f0:	940005a0 	bl	2003870 <printk>
 20021f4:	1400002a 	b	200229c <cli_simple_parse_line+0xf4>
 20021f8:	34000320 	cbz	w0, 200225c <cli_simple_parse_line+0xb4>
 20021fc:	3800167f 	strb	wzr, [x19], #1
 2002200:	91000442 	add	x2, x2, #0x1
 2002204:	f100405f 	cmp	x2, #0x10
 2002208:	54000360 	b.eq	2002274 <cli_simple_parse_line+0xcc>  // b.none
 200220c:	2a0203e3 	mov	w3, w2
 2002210:	2a0203f4 	mov	w20, w2
 2002214:	39400260 	ldrb	w0, [x19]
 2002218:	7100801f 	cmp	w0, #0x20
 200221c:	7a491804 	ccmp	w0, #0x9, #0x4, ne  // ne = any
 2002220:	540000a1 	b.ne	2002234 <cli_simple_parse_line+0x8c>  // b.any
 2002224:	38401e60 	ldrb	w0, [x19, #1]!
 2002228:	7100801f 	cmp	w0, #0x20
 200222c:	7a491804 	ccmp	w0, #0x9, #0x4, ne  // ne = any
 2002230:	54ffffa0 	b.eq	2002224 <cli_simple_parse_line+0x7c>  // b.none
 2002234:	34fffd20 	cbz	w0, 20021d8 <cli_simple_parse_line+0x30>
 2002238:	11000474 	add	w20, w3, #0x1
 200223c:	f8227ab3 	str	x19, [x21, x2, lsl #3]
 2002240:	39400260 	ldrb	w0, [x19]
 2002244:	340000c0 	cbz	w0, 200225c <cli_simple_parse_line+0xb4>
 2002248:	7100801f 	cmp	w0, #0x20
 200224c:	7a491804 	ccmp	w0, #0x9, #0x4, ne  // ne = any
 2002250:	54fffd40 	b.eq	20021f8 <cli_simple_parse_line+0x50>  // b.none
 2002254:	38401e60 	ldrb	w0, [x19, #1]!
 2002258:	35ffff80 	cbnz	w0, 2002248 <cli_simple_parse_line+0xa0>
 200225c:	f834dabf 	str	xzr, [x21, w20, sxtw #3]
 2002260:	2a1403e1 	mov	w1, w20
 2002264:	f0000000 	adrp	x0, 2005000 <vscnprintf+0x18>
 2002268:	91106000 	add	x0, x0, #0x418
 200226c:	94000581 	bl	2003870 <printk>
 2002270:	1400000b 	b	200229c <cli_simple_parse_line+0xf4>
 2002274:	52800201 	mov	w1, #0x10                  	// #16
 2002278:	f0000000 	adrp	x0, 2005000 <vscnprintf+0x18>
 200227c:	9110c000 	add	x0, x0, #0x430
 2002280:	94000ba4 	bl	2005110 <printf>
 2002284:	2a1403e2 	mov	w2, w20
 2002288:	f0000001 	adrp	x1, 2005000 <vscnprintf+0x18>
 200228c:	9108a021 	add	x1, x1, #0x228
 2002290:	f0000000 	adrp	x0, 2005000 <vscnprintf+0x18>
 2002294:	91102000 	add	x0, x0, #0x408
 2002298:	94000576 	bl	2003870 <printk>
 200229c:	2a1403e0 	mov	w0, w20
 20022a0:	a9417bf5 	ldp	x21, x30, [sp, #16]
 20022a4:	a8c253f3 	ldp	x19, x20, [sp], #32
 20022a8:	d65f03c0 	ret

00000000020022ac <cli_simple_process_macros>:
 20022ac:	a9bd53f3 	stp	x19, x20, [sp, #-48]!
 20022b0:	a9015bf5 	stp	x21, x22, [sp, #16]
 20022b4:	f90013fe 	str	x30, [sp, #32]
 20022b8:	aa0003f4 	mov	x20, x0
 20022bc:	aa0103f5 	mov	x21, x1
 20022c0:	940005dd 	bl	2003a34 <strlen>
 20022c4:	aa0003f6 	mov	x22, x0
 20022c8:	2a0003f3 	mov	w19, w0
 20022cc:	aa1403e0 	mov	x0, x20
 20022d0:	940005d9 	bl	2003a34 <strlen>
 20022d4:	aa1403e2 	mov	x2, x20
 20022d8:	aa0003e1 	mov	x1, x0
 20022dc:	f0000000 	adrp	x0, 2005000 <vscnprintf+0x18>
 20022e0:	91114000 	add	x0, x0, #0x450
 20022e4:	94000563 	bl	2003870 <printk>
 20022e8:	34000cb6 	cbz	w22, 200247c <cli_simple_process_macros+0x1d0>
 20022ec:	aa1503e9 	mov	x9, x21
 20022f0:	52800003 	mov	w3, #0x0                   	// #0
 20022f4:	52808008 	mov	w8, #0x400                 	// #1024
 20022f8:	52800005 	mov	w5, #0x0                   	// #0
 20022fc:	52800b80 	mov	w0, #0x5c                  	// #92
 2002300:	52800f6b 	mov	w11, #0x7b                  	// #123
 2002304:	5280048d 	mov	w13, #0x24                  	// #36
 2002308:	52800faa 	mov	w10, #0x7d                  	// #125
 200230c:	52800002 	mov	w2, #0x0                   	// #0
 2002310:	528004ec 	mov	w12, #0x27                  	// #39
 2002314:	14000010 	b	2002354 <cli_simple_process_macros+0xa8>
 2002318:	2a0703f3 	mov	w19, w7
 200231c:	2a0503e1 	mov	w1, w5
 2002320:	2a0603e5 	mov	w5, w6
 2002324:	aa0403f4 	mov	x20, x4
 2002328:	7100047f 	cmp	w3, #0x1
 200232c:	54000480 	b.eq	20023bc <cli_simple_process_macros+0x110>  // b.none
 2002330:	540002ed 	b.le	200238c <cli_simple_process_macros+0xe0>
 2002334:	7100087f 	cmp	w3, #0x2
 2002338:	54000081 	b.ne	2002348 <cli_simple_process_macros+0x9c>  // b.any
 200233c:	7100a4bf 	cmp	w5, #0x29
 2002340:	7a4a10a4 	ccmp	w5, w10, #0x4, ne  // ne = any
 2002344:	1a821063 	csel	w3, w3, w2, ne  // ne = any
 2002348:	7100027f 	cmp	w19, #0x0
 200234c:	7a401904 	ccmp	w8, #0x0, #0x4, ne  // ne = any
 2002350:	540007c0 	b.eq	2002448 <cli_simple_process_macros+0x19c>  // b.none
 2002354:	aa1403e4 	mov	x4, x20
 2002358:	38401486 	ldrb	w6, [x4], #1
 200235c:	51000667 	sub	w7, w19, #0x1
 2002360:	71000c7f 	cmp	w3, #0x3
 2002364:	54000480 	b.eq	20023f4 <cli_simple_process_macros+0x148>  // b.none
 2002368:	710170df 	cmp	w6, #0x5c
 200236c:	7a4000a4 	ccmp	w5, w0, #0x4, eq  // eq = none
 2002370:	54fffd40 	b.eq	2002318 <cli_simple_process_macros+0x6c>  // b.none
 2002374:	51000a73 	sub	w19, w19, #0x2
 2002378:	34000687 	cbz	w7, 2002448 <cli_simple_process_macros+0x19c>
 200237c:	39400685 	ldrb	w5, [x20, #1]
 2002380:	91000a94 	add	x20, x20, #0x2
 2002384:	2a0003e1 	mov	w1, w0
 2002388:	17ffffe8 	b	2002328 <cli_simple_process_macros+0x7c>
 200238c:	35fffde3 	cbnz	w3, 2002348 <cli_simple_process_macros+0x9c>
 2002390:	7101703f 	cmp	w1, #0x5c
 2002394:	1a9f07e1 	cset	w1, ne  // ne = any
 2002398:	71009cbf 	cmp	w5, #0x27
 200239c:	7a400824 	ccmp	w1, #0x0, #0x4, eq  // eq = none
 20023a0:	540003c1 	b.ne	2002418 <cli_simple_process_macros+0x16c>  // b.any
 20023a4:	710090bf 	cmp	w5, #0x24
 20023a8:	7a400824 	ccmp	w1, #0x0, #0x4, eq  // eq = none
 20023ac:	540003c1 	b.ne	2002424 <cli_simple_process_macros+0x178>  // b.any
 20023b0:	38001525 	strb	w5, [x9], #1
 20023b4:	51000508 	sub	w8, w8, #0x1
 20023b8:	17ffffe4 	b	2002348 <cli_simple_process_macros+0x9c>
 20023bc:	7100a0bf 	cmp	w5, #0x28
 20023c0:	7a4b10a4 	ccmp	w5, w11, #0x4, ne  // ne = any
 20023c4:	54000340 	b.eq	200242c <cli_simple_process_macros+0x180>  // b.none
 20023c8:	3900012d 	strb	w13, [x9]
 20023cc:	7100051f 	cmp	w8, #0x1
 20023d0:	54000081 	b.ne	20023e0 <cli_simple_process_macros+0x134>  // b.any
 20023d4:	91000529 	add	x9, x9, #0x1
 20023d8:	381ff13f 	sturb	wzr, [x9, #-1]
 20023dc:	1400001d 	b	2002450 <cli_simple_process_macros+0x1a4>
 20023e0:	39000525 	strb	w5, [x9, #1]
 20023e4:	51000908 	sub	w8, w8, #0x2
 20023e8:	91000929 	add	x9, x9, #0x2
 20023ec:	52800003 	mov	w3, #0x0                   	// #0
 20023f0:	17ffffd6 	b	2002348 <cli_simple_process_macros+0x9c>
 20023f4:	71009cdf 	cmp	w6, #0x27
 20023f8:	7a4000a4 	ccmp	w5, w0, #0x4, eq  // eq = none
 20023fc:	540001c1 	b.ne	2002434 <cli_simple_process_macros+0x188>  // b.any
 2002400:	38001526 	strb	w6, [x9], #1
 2002404:	51000508 	sub	w8, w8, #0x1
 2002408:	2a0703f3 	mov	w19, w7
 200240c:	aa0403f4 	mov	x20, x4
 2002410:	2a0603e5 	mov	w5, w6
 2002414:	17ffffcd 	b	2002348 <cli_simple_process_macros+0x9c>
 2002418:	52800063 	mov	w3, #0x3                   	// #3
 200241c:	2a0c03e5 	mov	w5, w12
 2002420:	17ffffca 	b	2002348 <cli_simple_process_macros+0x9c>
 2002424:	52800023 	mov	w3, #0x1                   	// #1
 2002428:	17ffffc8 	b	2002348 <cli_simple_process_macros+0x9c>
 200242c:	52800043 	mov	w3, #0x2                   	// #2
 2002430:	17ffffc6 	b	2002348 <cli_simple_process_macros+0x9c>
 2002434:	2a0703f3 	mov	w19, w7
 2002438:	aa0403f4 	mov	x20, x4
 200243c:	2a0603e5 	mov	w5, w6
 2002440:	52800003 	mov	w3, #0x0                   	// #0
 2002444:	17ffffc1 	b	2002348 <cli_simple_process_macros+0x9c>
 2002448:	34fffc88 	cbz	w8, 20023d8 <cli_simple_process_macros+0x12c>
 200244c:	3900013f 	strb	wzr, [x9]
 2002450:	aa1503e0 	mov	x0, x21
 2002454:	94000578 	bl	2003a34 <strlen>
 2002458:	aa1503e2 	mov	x2, x21
 200245c:	aa0003e1 	mov	x1, x0
 2002460:	f0000000 	adrp	x0, 2005000 <vscnprintf+0x18>
 2002464:	9111e000 	add	x0, x0, #0x478
 2002468:	94000502 	bl	2003870 <printk>
 200246c:	a9415bf5 	ldp	x21, x22, [sp, #16]
 2002470:	f94013fe 	ldr	x30, [sp, #32]
 2002474:	a8c353f3 	ldp	x19, x20, [sp], #48
 2002478:	d65f03c0 	ret
 200247c:	aa1503e9 	mov	x9, x21
 2002480:	17fffff3 	b	200244c <cli_simple_process_macros+0x1a0>

0000000002002484 <cli_simple_run_command>:
 2002484:	d12343ff 	sub	sp, sp, #0x8d0
 2002488:	a90053f3 	stp	x19, x20, [sp]
 200248c:	a9015bf5 	stp	x21, x22, [sp, #16]
 2002490:	a90263f7 	stp	x23, x24, [sp, #32]
 2002494:	f9001bfe 	str	x30, [sp, #48]
 2002498:	aa0003f3 	mov	x19, x0
 200249c:	2a0103f8 	mov	w24, w1
 20024a0:	52800020 	mov	w0, #0x1                   	// #1
 20024a4:	b90047e0 	str	w0, [sp, #68]
 20024a8:	aa1303e1 	mov	x1, x19
 20024ac:	f0000000 	adrp	x0, 2005000 <vscnprintf+0x18>
 20024b0:	9112a000 	add	x0, x0, #0x4a8
 20024b4:	940004ef 	bl	2003870 <printk>
 20024b8:	b4000b73 	cbz	x19, 2002624 <cli_simple_run_command+0x1a0>
 20024bc:	aa1303e0 	mov	x0, x19
 20024c0:	940003cd 	bl	20033f4 <puts>
 20024c4:	f0000000 	adrp	x0, 2005000 <vscnprintf+0x18>
 20024c8:	91146000 	add	x0, x0, #0x518
 20024cc:	940003ca 	bl	20033f4 <puts>
 20024d0:	39400260 	ldrb	w0, [x19]
 20024d4:	340006e0 	cbz	w0, 20025b0 <cli_simple_run_command+0x12c>
 20024d8:	aa1303e0 	mov	x0, x19
 20024dc:	94000556 	bl	2003a34 <strlen>
 20024e0:	f10ffc1f 	cmp	x0, #0x3ff
 20024e4:	54000208 	b.hi	2002524 <cli_simple_run_command+0xa0>  // b.pmore
 20024e8:	aa1303e1 	mov	x1, x19
 20024ec:	911343e0 	add	x0, sp, #0x4d0
 20024f0:	94000527 	bl	200398c <strcpy>
 20024f4:	aa1303e1 	mov	x1, x19
 20024f8:	f0000000 	adrp	x0, 2005000 <vscnprintf+0x18>
 20024fc:	91138000 	add	x0, x0, #0x4e0
 2002500:	940004dc 	bl	2003870 <printk>
 2002504:	395343e0 	ldrb	w0, [sp, #1232]
 2002508:	52800016 	mov	w22, #0x0                   	// #0
 200250c:	911343f4 	add	x20, sp, #0x4d0
 2002510:	340004c0 	cbz	w0, 20025a8 <cli_simple_run_command+0x124>
 2002514:	52800015 	mov	w21, #0x0                   	// #0
 2002518:	f0000017 	adrp	x23, 2005000 <vscnprintf+0x18>
 200251c:	911402f7 	add	x23, x23, #0x500
 2002520:	1400003c 	b	2002610 <cli_simple_run_command+0x18c>
 2002524:	f0000000 	adrp	x0, 2005000 <vscnprintf+0x18>
 2002528:	91132000 	add	x0, x0, #0x4c8
 200252c:	940003b2 	bl	20033f4 <puts>
 2002530:	12800016 	mov	w22, #0xffffffff            	// #-1
 2002534:	14000016 	b	200258c <cli_simple_run_command+0x108>
 2002538:	385ff260 	ldurb	w0, [x19, #-1]
 200253c:	7101701f 	cmp	w0, #0x5c
 2002540:	2a0203e1 	mov	w1, w2
 2002544:	52000042 	eor	w2, w2, #0x1
 2002548:	1a811042 	csel	w2, w2, w1, ne  // ne = any
 200254c:	38401e60 	ldrb	w0, [x19, #1]!
 2002550:	34000360 	cbz	w0, 20025bc <cli_simple_run_command+0x138>
 2002554:	71009c1f 	cmp	w0, #0x27
 2002558:	54ffff00 	b.eq	2002538 <cli_simple_run_command+0xb4>  // b.none
 200255c:	7100ec1f 	cmp	w0, #0x3b
 2002560:	7a400840 	ccmp	w2, #0x0, #0x0, eq  // eq = none
 2002564:	fa540264 	ccmp	x19, x20, #0x4, eq  // eq = none
 2002568:	54ffff20 	b.eq	200254c <cli_simple_run_command+0xc8>  // b.none
 200256c:	385ff260 	ldurb	w0, [x19, #-1]
 2002570:	7101701f 	cmp	w0, #0x5c
 2002574:	54000221 	b.ne	20025b8 <cli_simple_run_command+0x134>  // b.any
 2002578:	2a1503e2 	mov	w2, w21
 200257c:	17fffff4 	b	200254c <cli_simple_run_command+0xc8>
 2002580:	12800016 	mov	w22, #0xffffffff            	// #-1
 2002584:	14000020 	b	2002604 <cli_simple_run_command+0x180>
 2002588:	34000116 	cbz	w22, 20025a8 <cli_simple_run_command+0x124>
 200258c:	2a1603e0 	mov	w0, w22
 2002590:	a94053f3 	ldp	x19, x20, [sp]
 2002594:	a9415bf5 	ldp	x21, x22, [sp, #16]
 2002598:	a94263f7 	ldp	x23, x24, [sp, #32]
 200259c:	f9401bfe 	ldr	x30, [sp, #48]
 20025a0:	912343ff 	add	sp, sp, #0x8d0
 20025a4:	d65f03c0 	ret
 20025a8:	b94047f6 	ldr	w22, [sp, #68]
 20025ac:	17fffff8 	b	200258c <cli_simple_run_command+0x108>
 20025b0:	12800016 	mov	w22, #0xffffffff            	// #-1
 20025b4:	17fffff6 	b	200258c <cli_simple_run_command+0x108>
 20025b8:	3800167f 	strb	wzr, [x19], #1
 20025bc:	aa1403e1 	mov	x1, x20
 20025c0:	aa1703e0 	mov	x0, x23
 20025c4:	940004ab 	bl	2003870 <printk>
 20025c8:	910343e1 	add	x1, sp, #0xd0
 20025cc:	aa1403e0 	mov	x0, x20
 20025d0:	97ffff37 	bl	20022ac <cli_simple_process_macros>
 20025d4:	910123e1 	add	x1, sp, #0x48
 20025d8:	910343e0 	add	x0, sp, #0xd0
 20025dc:	97fffef3 	bl	20021a8 <cli_simple_parse_line>
 20025e0:	34fffd00 	cbz	w0, 2002580 <cli_simple_run_command+0xfc>
 20025e4:	d2800004 	mov	x4, #0x0                   	// #0
 20025e8:	910113e3 	add	x3, sp, #0x44
 20025ec:	910123e2 	add	x2, sp, #0x48
 20025f0:	2a0003e1 	mov	w1, w0
 20025f4:	2a1803e0 	mov	w0, w24
 20025f8:	97fffc39 	bl	20016dc <cmd_process>
 20025fc:	7100001f 	cmp	w0, #0x0
 2002600:	5a9f02d6 	csinv	w22, w22, wzr, eq  // eq = none
 2002604:	39400260 	ldrb	w0, [x19]
 2002608:	34fffc00 	cbz	w0, 2002588 <cli_simple_run_command+0x104>
 200260c:	aa1303f4 	mov	x20, x19
 2002610:	39400280 	ldrb	w0, [x20]
 2002614:	aa1403f3 	mov	x19, x20
 2002618:	2a1503e2 	mov	w2, w21
 200261c:	35fff9c0 	cbnz	w0, 2002554 <cli_simple_run_command+0xd0>
 2002620:	17ffffe7 	b	20025bc <cli_simple_run_command+0x138>
 2002624:	f0000000 	adrp	x0, 2005000 <vscnprintf+0x18>
 2002628:	91144000 	add	x0, x0, #0x510
 200262c:	94000372 	bl	20033f4 <puts>
 2002630:	f0000000 	adrp	x0, 2005000 <vscnprintf+0x18>
 2002634:	91146000 	add	x0, x0, #0x518
 2002638:	9400036f 	bl	20033f4 <puts>
 200263c:	12800016 	mov	w22, #0xffffffff            	// #-1
 2002640:	17ffffd3 	b	200258c <cli_simple_run_command+0x108>

0000000002002644 <cli_simple_loop>:
 2002644:	a9bd53f3 	stp	x19, x20, [sp, #-48]!
 2002648:	a9015bf5 	stp	x21, x22, [sp, #16]
 200264c:	f90013fe 	str	x30, [sp, #32]
 2002650:	52800033 	mov	w19, #0x1                   	// #1
 2002654:	f0000015 	adrp	x21, 2005000 <vscnprintf+0x18>
 2002658:	911482b5 	add	x21, x21, #0x520
 200265c:	f0000054 	adrp	x20, 200d000 <hist_lines+0x4610>
 2002660:	912ae294 	add	x20, x20, #0xab8
 2002664:	f0000016 	adrp	x22, 2005000 <vscnprintf+0x18>
 2002668:	910fa2d6 	add	x22, x22, #0x3e8
 200266c:	1400000c 	b	200269c <cli_simple_loop+0x58>
 2002670:	d2808022 	mov	x2, #0x401                 	// #1025
 2002674:	d0000021 	adrp	x1, 2008000 <__image_copy_end+0xf90>
 2002678:	9117a021 	add	x1, x1, #0x5e8
 200267c:	aa1403e0 	mov	x0, x20
 2002680:	94000539 	bl	2003b64 <strlcpy>
 2002684:	52800001 	mov	w1, #0x0                   	// #0
 2002688:	aa1403e0 	mov	x0, x20
 200268c:	97fff996 	bl	2000ce4 <run_command_repeatable>
 2002690:	2a0003f3 	mov	w19, w0
 2002694:	7100027f 	cmp	w19, #0x0
 2002698:	540001ad 	b.le	20026cc <cli_simple_loop+0x88>
 200269c:	aa1503e0 	mov	x0, x21
 20026a0:	97fffeba 	bl	2002188 <cli_readline>
 20026a4:	7100001f 	cmp	w0, #0x0
 20026a8:	54fffe4c 	b.gt	2002670 <cli_simple_loop+0x2c>
 20026ac:	3100041f 	cmn	w0, #0x1
 20026b0:	54000081 	b.ne	20026c0 <cli_simple_loop+0x7c>  // b.any
 20026b4:	aa1603e0 	mov	x0, x22
 20026b8:	9400034f 	bl	20033f4 <puts>
 20026bc:	17fffff6 	b	2002694 <cli_simple_loop+0x50>
 20026c0:	7100001f 	cmp	w0, #0x0
 20026c4:	1a9f17e1 	cset	w1, eq  // eq = none
 20026c8:	17fffff0 	b	2002688 <cli_simple_loop+0x44>
 20026cc:	3900029f 	strb	wzr, [x20]
 20026d0:	17fffff3 	b	200269c <cli_simple_loop+0x58>

00000000020026d4 <do_switch_el>:
 20026d4:	7100045f 	cmp	w2, #0x1
 20026d8:	5400034d 	b.le	2002740 <do_switch_el+0x6c>
 20026dc:	a9bd53f3 	stp	x19, x20, [sp, #-48]!
 20026e0:	a9015bf5 	stp	x21, x22, [sp, #16]
 20026e4:	f90013fe 	str	x30, [sp, #32]
 20026e8:	aa0003f6 	mov	x22, x0
 20026ec:	2a0103f5 	mov	w21, w1
 20026f0:	2a0203f3 	mov	w19, w2
 20026f4:	aa0303f4 	mov	x20, x3
 20026f8:	52800062 	mov	w2, #0x3                   	// #3
 20026fc:	90000021 	adrp	x1, 2006000 <names.0+0x2c0>
 2002700:	913a2021 	add	x1, x1, #0xe88
 2002704:	f9400460 	ldr	x0, [x3, #8]
 2002708:	97fff980 	bl	2000d08 <find_cmd_tbl>
 200270c:	aa0003e2 	mov	x2, x0
 2002710:	52800020 	mov	w0, #0x1                   	// #1
 2002714:	b40000e2 	cbz	x2, 2002730 <do_switch_el+0x5c>
 2002718:	f9400c44 	ldr	x4, [x2, #24]
 200271c:	91002283 	add	x3, x20, #0x8
 2002720:	51000662 	sub	w2, w19, #0x1
 2002724:	2a1503e1 	mov	w1, w21
 2002728:	aa1603e0 	mov	x0, x22
 200272c:	d63f0080 	blr	x4
 2002730:	a9415bf5 	ldp	x21, x22, [sp, #16]
 2002734:	f94013fe 	ldr	x30, [sp, #32]
 2002738:	a8c353f3 	ldp	x19, x20, [sp], #48
 200273c:	d65f03c0 	ret
 2002740:	52800020 	mov	w0, #0x1                   	// #1
 2002744:	d65f03c0 	ret

0000000002002748 <swtich_to_el0_test>:
 2002748:	f81f0ffe 	str	x30, [sp, #-16]!
 200274c:	9400004b 	bl	2002878 <switch_to_el0_g>
 2002750:	52800001 	mov	w1, #0x0                   	// #0
 2002754:	90000020 	adrp	x0, 2006000 <names.0+0x2c0>
 2002758:	9137c000 	add	x0, x0, #0xdf0
 200275c:	94000a6d 	bl	2005110 <printf>
 2002760:	52800000 	mov	w0, #0x0                   	// #0
 2002764:	f84107fe 	ldr	x30, [sp], #16
 2002768:	d65f03c0 	ret

000000000200276c <swtich_to_el1_test>:
 200276c:	f81f0ffe 	str	x30, [sp, #-16]!
 2002770:	94000025 	bl	2002804 <switch_to_el1_g>
 2002774:	d5384241 	mrs	x1, currentel
 2002778:	53027c21 	lsr	w1, w1, #2
 200277c:	90000020 	adrp	x0, 2006000 <names.0+0x2c0>
 2002780:	9137c000 	add	x0, x0, #0xdf0
 2002784:	94000a63 	bl	2005110 <printf>
 2002788:	52800000 	mov	w0, #0x0                   	// #0
 200278c:	f84107fe 	ldr	x30, [sp], #16
 2002790:	d65f03c0 	ret

0000000002002794 <swtich_to_el2_test>:
 2002794:	f81f0ffe 	str	x30, [sp, #-16]!
 2002798:	94000081 	bl	200299c <dcache_disable>
 200279c:	94000009 	bl	20027c0 <switch_to_el2_g>
 20027a0:	d5384241 	mrs	x1, currentel
 20027a4:	53027c21 	lsr	w1, w1, #2
 20027a8:	90000020 	adrp	x0, 2006000 <names.0+0x2c0>
 20027ac:	9137c000 	add	x0, x0, #0xdf0
 20027b0:	94000a58 	bl	2005110 <printf>
 20027b4:	52800000 	mov	w0, #0x0                   	// #0
 20027b8:	f84107fe 	ldr	x30, [sp], #16
 20027bc:	d65f03c0 	ret

00000000020027c0 <switch_to_el2_g>:
 20027c0:	d280b620 	mov	x0, #0x5b1                 	// #1457
 20027c4:	d51e1100 	msr	scr_el3, x0
 20027c8:	d51e115f 	msr	cptr_el3, xzr
 20027cc:	d2867fe0 	mov	x0, #0x33ff                	// #13311
 20027d0:	d51c1140 	msr	cptr_el2, x0
 20027d4:	d51ce07f 	msr	cntvoff_el2, xzr
 20027d8:	d2810600 	mov	x0, #0x830                 	// #2096
 20027dc:	f2a618a0 	movk	x0, #0x30c5, lsl #16
 20027e0:	d51c1000 	msr	sctlr_el2, x0
 20027e4:	910003e0 	mov	x0, sp
 20027e8:	d51e4100 	msr	sp_el2, x0
 20027ec:	d53ec000 	mrs	x0, vbar_el3
 20027f0:	d51cc000 	msr	vbar_el2, x0
 20027f4:	d2807920 	mov	x0, #0x3c9                 	// #969
 20027f8:	d51e4000 	msr	spsr_el3, x0
 20027fc:	d51e403e 	msr	elr_el3, x30
 2002800:	d69f03e0 	eret

0000000002002804 <switch_to_el1_g>:
 2002804:	d53ce100 	mrs	x0, cnthctl_el2
 2002808:	b2400400 	orr	x0, x0, #0x3
 200280c:	d51ce100 	msr	cnthctl_el2, x0
 2002810:	d51ce07f 	msr	cntvoff_el2, xzr
 2002814:	d5380000 	mrs	x0, midr_el1
 2002818:	d51c0000 	msr	vpidr_el2, x0
 200281c:	d53800a0 	mrs	x0, mpidr_el1
 2002820:	d51c00a0 	msr	vmpidr_el2, x0
 2002824:	d2867fe0 	mov	x0, #0x33ff                	// #13311
 2002828:	d51c1140 	msr	cptr_el2, x0
 200282c:	d51c117f 	msr	hstr_el2, xzr
 2002830:	d2a00600 	mov	x0, #0x300000              	// #3145728
 2002834:	d5181040 	msr	cpacr_el1, x0
 2002838:	d2b00000 	mov	x0, #0x80000000            	// #2147483648
 200283c:	b2630000 	orr	x0, x0, #0x20000000
 2002840:	b27d0000 	orr	x0, x0, #0x8
 2002844:	b27c0000 	orr	x0, x0, #0x10
 2002848:	d51c1100 	msr	hcr_el2, x0
 200284c:	d2810000 	mov	x0, #0x800                 	// #2048
 2002850:	f2a61a00 	movk	x0, #0x30d0, lsl #16
 2002854:	d5181000 	msr	sctlr_el1, x0
 2002858:	910003e0 	mov	x0, sp
 200285c:	d51c4100 	msr	sp_el1, x0
 2002860:	d53cc000 	mrs	x0, vbar_el2
 2002864:	d518c000 	msr	vbar_el1, x0
 2002868:	d28078a0 	mov	x0, #0x3c5                 	// #965
 200286c:	d51c4000 	msr	spsr_el2, x0
 2002870:	d51c403e 	msr	elr_el2, x30
 2002874:	d69f03e0 	eret

0000000002002878 <switch_to_el0_g>:
 2002878:	910003e0 	mov	x0, sp
 200287c:	d5184100 	msr	sp_el0, x0
 2002880:	d5384000 	mrs	x0, spsr_el1
 2002884:	927cec00 	and	x0, x0, #0xfffffffffffffff0
 2002888:	d5184000 	msr	spsr_el1, x0
 200288c:	d518403e 	msr	elr_el1, x30
 2002890:	d69f03e0 	eret

0000000002002894 <__asm_dcache_level>:
 2002894:	d37ff80c 	lsl	x12, x0, #1
 2002898:	d51a000c 	msr	csselr_el1, x12
 200289c:	d5033fdf 	isb
 20028a0:	d5390006 	mrs	x6, ccsidr_el1
 20028a4:	924008c2 	and	x2, x6, #0x7
 20028a8:	91001042 	add	x2, x2, #0x4
 20028ac:	d2807fe3 	mov	x3, #0x3ff                 	// #1023
 20028b0:	8a460c63 	and	x3, x3, x6, lsr #3
 20028b4:	5ac01065 	clz	w5, w3
 20028b8:	d28fffe4 	mov	x4, #0x7fff                	// #32767
 20028bc:	8a463484 	and	x4, x4, x6, lsr #13

00000000020028c0 <loop_set>:
 20028c0:	aa0303e6 	mov	x6, x3

00000000020028c4 <loop_way>:
 20028c4:	9ac520c7 	lsl	x7, x6, x5
 20028c8:	aa070189 	orr	x9, x12, x7
 20028cc:	9ac22087 	lsl	x7, x4, x2
 20028d0:	aa070129 	orr	x9, x9, x7
 20028d4:	36000061 	tbz	w1, #0, 20028e0 <loop_way+0x1c>
 20028d8:	d5087649 	dc	isw, x9
 20028dc:	14000002 	b	20028e4 <loop_way+0x20>
 20028e0:	d5087e49 	dc	cisw, x9
 20028e4:	f10004c6 	subs	x6, x6, #0x1
 20028e8:	54fffeea 	b.ge	20028c4 <loop_way>  // b.tcont
 20028ec:	f1000484 	subs	x4, x4, #0x1
 20028f0:	54fffe8a 	b.ge	20028c0 <loop_set>  // b.tcont
 20028f4:	d65f03c0 	ret

00000000020028f8 <__asm_dcache_all>:
 20028f8:	aa0003e1 	mov	x1, x0
 20028fc:	d5033fdf 	isb
 2002900:	d539002a 	mrs	x10, clidr_el1
 2002904:	d358fd4b 	lsr	x11, x10, #24
 2002908:	9240096b 	and	x11, x11, #0x7
 200290c:	b400024b 	cbz	x11, 2002954 <finished>
 2002910:	aa1e03ef 	mov	x15, x30
 2002914:	d2800000 	mov	x0, #0x0                   	// #0

0000000002002918 <loop_level>:
 2002918:	d37ff80c 	lsl	x12, x0, #1
 200291c:	8b00018c 	add	x12, x12, x0
 2002920:	9acc254c 	lsr	x12, x10, x12
 2002924:	9240098c 	and	x12, x12, #0x7
 2002928:	f100099f 	cmp	x12, #0x2
 200292c:	5400004b 	b.lt	2002934 <skip>  // b.tstop
 2002930:	97ffffd9 	bl	2002894 <__asm_dcache_level>

0000000002002934 <skip>:
 2002934:	91000400 	add	x0, x0, #0x1
 2002938:	eb00017f 	cmp	x11, x0
 200293c:	54fffeec 	b.gt	2002918 <loop_level>
 2002940:	d2800000 	mov	x0, #0x0                   	// #0
 2002944:	d51a0000 	msr	csselr_el1, x0
 2002948:	d5033f9f 	dsb	sy
 200294c:	d5033fdf 	isb
 2002950:	aa0f03fe 	mov	x30, x15

0000000002002954 <finished>:
 2002954:	d65f03c0 	ret

0000000002002958 <__asm_flush_dcache_all>:
 2002958:	d2800000 	mov	x0, #0x0                   	// #0
 200295c:	17ffffe7 	b	20028f8 <__asm_dcache_all>

0000000002002960 <__asm_flush_dcache_range>:
 2002960:	d53b0023 	mrs	x3, ctr_el0
 2002964:	d350fc63 	lsr	x3, x3, #16
 2002968:	92400c63 	and	x3, x3, #0xf
 200296c:	d2800082 	mov	x2, #0x4                   	// #4
 2002970:	9ac32042 	lsl	x2, x2, x3
 2002974:	d1000443 	sub	x3, x2, #0x1
 2002978:	8a230000 	bic	x0, x0, x3
 200297c:	d50b7e20 	dc	civac, x0
 2002980:	8b020000 	add	x0, x0, x2
 2002984:	eb01001f 	cmp	x0, x1
 2002988:	54ffffa3 	b.cc	200297c <__asm_flush_dcache_range+0x1c>  // b.lo, b.ul, b.last
 200298c:	d5033f9f 	dsb	sy
 2002990:	d65f03c0 	ret

0000000002002994 <__asm_flush_l3_dcache>:
 2002994:	d2800000 	mov	x0, #0x0                   	// #0
 2002998:	d65f03c0 	ret

000000000200299c <dcache_disable>:
 200299c:	d5384240 	mrs	x0, currentel
 20029a0:	53027c00 	lsr	w0, w0, #2
 20029a4:	7100041f 	cmp	w0, #0x1
 20029a8:	540002a0 	b.eq	20029fc <dcache_disable+0x60>  // b.none
 20029ac:	7100081f 	cmp	w0, #0x2
 20029b0:	540002a0 	b.eq	2002a04 <dcache_disable+0x68>  // b.none
 20029b4:	d53e1000 	mrs	x0, sctlr_el3
 20029b8:	36100320 	tbz	w0, #2, 2002a1c <dcache_disable+0x80>
 20029bc:	f81f0ffe 	str	x30, [sp, #-16]!
 20029c0:	128000a1 	mov	w1, #0xfffffffa            	// #-6
 20029c4:	0a010000 	and	w0, w0, w1
 20029c8:	d5384241 	mrs	x1, currentel
 20029cc:	53027c21 	lsr	w1, w1, #2
 20029d0:	7100043f 	cmp	w1, #0x1
 20029d4:	540001c0 	b.eq	2002a0c <dcache_disable+0x70>  // b.none
 20029d8:	7100083f 	cmp	w1, #0x2
 20029dc:	540001c0 	b.eq	2002a14 <dcache_disable+0x78>  // b.none
 20029e0:	d51e1000 	msr	sctlr_el3, x0
 20029e4:	d5033fdf 	isb
 20029e8:	97ffffdc 	bl	2002958 <__asm_flush_dcache_all>
 20029ec:	97ffffea 	bl	2002994 <__asm_flush_l3_dcache>
 20029f0:	9400000d 	bl	2002a24 <__asm_invalidate_tlb_all>
 20029f4:	f84107fe 	ldr	x30, [sp], #16
 20029f8:	d65f03c0 	ret
 20029fc:	d5381000 	mrs	x0, sctlr_el1
 2002a00:	17ffffee 	b	20029b8 <dcache_disable+0x1c>
 2002a04:	d53c1000 	mrs	x0, sctlr_el2
 2002a08:	17ffffec 	b	20029b8 <dcache_disable+0x1c>
 2002a0c:	d5181000 	msr	sctlr_el1, x0
 2002a10:	17fffff5 	b	20029e4 <dcache_disable+0x48>
 2002a14:	d51c1000 	msr	sctlr_el2, x0
 2002a18:	17fffff3 	b	20029e4 <dcache_disable+0x48>
 2002a1c:	d65f03c0 	ret

0000000002002a20 <enable_caches>:
 2002a20:	d65f03c0 	ret

0000000002002a24 <__asm_invalidate_tlb_all>:
 2002a24:	d5384249 	mrs	x9, currentel
 2002a28:	f100313f 	cmp	x9, #0xc
 2002a2c:	540000a0 	b.eq	2002a40 <__asm_invalidate_tlb_all+0x1c>  // b.none
 2002a30:	f100213f 	cmp	x9, #0x8
 2002a34:	540000e0 	b.eq	2002a50 <__asm_invalidate_tlb_all+0x2c>  // b.none
 2002a38:	f100113f 	cmp	x9, #0x4
 2002a3c:	54000120 	b.eq	2002a60 <__asm_invalidate_tlb_all+0x3c>  // b.none
 2002a40:	d50e871f 	tlbi	alle3
 2002a44:	d5033f9f 	dsb	sy
 2002a48:	d5033fdf 	isb
 2002a4c:	14000008 	b	2002a6c <__asm_invalidate_tlb_all+0x48>
 2002a50:	d50c871f 	tlbi	alle2
 2002a54:	d5033f9f 	dsb	sy
 2002a58:	d5033fdf 	isb
 2002a5c:	14000004 	b	2002a6c <__asm_invalidate_tlb_all+0x48>
 2002a60:	d508871f 	tlbi	vmalle1
 2002a64:	d5033f9f 	dsb	sy
 2002a68:	d5033fdf 	isb
 2002a6c:	d65f03c0 	ret

0000000002002a70 <_main>:
 2002a70:	58000340 	ldr	x0, 2002ad8 <clear_loop+0x18>
 2002a74:	927cec1f 	and	sp, x0, #0xfffffffffffffff0
 2002a78:	910003e0 	mov	x0, sp
 2002a7c:	97fff766 	bl	2000814 <board_init_f_alloc_reserve>
 2002a80:	9100001f 	mov	sp, x0
 2002a84:	aa0003f2 	mov	x18, x0
 2002a88:	97fff766 	bl	2000820 <board_init_f_init_reserve>
 2002a8c:	d2800000 	mov	x0, #0x0                   	// #0
 2002a90:	97fff840 	bl	2000b90 <board_init_f>
 2002a94:	f9402a40 	ldr	x0, [x18, #80]
 2002a98:	927cec1f 	and	sp, x0, #0xfffffffffffffff0
 2002a9c:	f9403a52 	ldr	x18, [x18, #112]
 2002aa0:	100000be 	adr	x30, 2002ab4 <relocation_return>
 2002aa4:	f9402e49 	ldr	x9, [x18, #88]
 2002aa8:	8b0903de 	add	x30, x30, x9
 2002aac:	f9401a40 	ldr	x0, [x18, #48]
 2002ab0:	14000010 	b	2002af0 <relocate_code>

0000000002002ab4 <relocation_return>:
 2002ab4:	97fff57d 	bl	20000a8 <c_runtime_cpu_setup>
 2002ab8:	58000140 	ldr	x0, 2002ae0 <clear_loop+0x20>
 2002abc:	58000161 	ldr	x1, 2002ae8 <clear_loop+0x28>

0000000002002ac0 <clear_loop>:
 2002ac0:	f800841f 	str	xzr, [x0], #8
 2002ac4:	eb01001f 	cmp	x0, x1
 2002ac8:	54ffffc3 	b.cc	2002ac0 <clear_loop>  // b.lo, b.ul, b.last
 2002acc:	aa1203e0 	mov	x0, x18
 2002ad0:	f9401a41 	ldr	x1, [x18, #48]
 2002ad4:	17fff866 	b	2000c6c <board_init_r>
 2002ad8:	02400000 	.word	0x02400000
 2002adc:	00000000 	.word	0x00000000
 2002ae0:	020081e0 	.word	0x020081e0
 2002ae4:	00000000 	.word	0x00000000
 2002ae8:	0200dec0 	.word	0x0200dec0
 2002aec:	00000000 	.word	0x00000000

0000000002002af0 <relocate_code>:
 2002af0:	a9be7bfd 	stp	x29, x30, [sp, #-32]!
 2002af4:	910003fd 	mov	x29, sp
 2002af8:	f9000be0 	str	x0, [sp, #16]
 2002afc:	d0ffffe1 	adrp	x1, 2000000 <__image_copy_start>
 2002b00:	91000021 	add	x1, x1, #0x0
 2002b04:	eb010009 	subs	x9, x0, x1
 2002b08:	54000340 	b.eq	2002b70 <relocate_done>  // b.none
 2002b0c:	58fea7e1 	ldr	x1, 2000008 <_TEXT_BASE>
 2002b10:	eb010009 	subs	x9, x0, x1
 2002b14:	d0ffffe1 	adrp	x1, 2000000 <__image_copy_start>
 2002b18:	91000021 	add	x1, x1, #0x0
 2002b1c:	b0000022 	adrp	x2, 2007000 <_rock_list_2_cmd_2_switch_el>
 2002b20:	9101c042 	add	x2, x2, #0x70

0000000002002b24 <copy_loop>:
 2002b24:	a8c12c2a 	ldp	x10, x11, [x1], #16
 2002b28:	a8812c0a 	stp	x10, x11, [x0], #16
 2002b2c:	eb02003f 	cmp	x1, x2
 2002b30:	54ffffa3 	b.cc	2002b24 <copy_loop>  // b.lo, b.ul, b.last
 2002b34:	f9000fe0 	str	x0, [sp, #24]
 2002b38:	b0000022 	adrp	x2, 2007000 <_rock_list_2_cmd_2_switch_el>
 2002b3c:	9101c042 	add	x2, x2, #0x70
 2002b40:	d0000023 	adrp	x3, 2008000 <__image_copy_end+0xf90>
 2002b44:	91078063 	add	x3, x3, #0x1e0

0000000002002b48 <fixloop>:
 2002b48:	a8c10440 	ldp	x0, x1, [x2], #16
 2002b4c:	f8408444 	ldr	x4, [x2], #8
 2002b50:	92407c21 	and	x1, x1, #0xffffffff
 2002b54:	f1100c3f 	cmp	x1, #0x403
 2002b58:	54000081 	b.ne	2002b68 <fixnext>  // b.any
 2002b5c:	8b090000 	add	x0, x0, x9
 2002b60:	8b090084 	add	x4, x4, x9
 2002b64:	f9000004 	str	x4, [x0]

0000000002002b68 <fixnext>:
 2002b68:	eb03005f 	cmp	x2, x3
 2002b6c:	54fffee3 	b.cc	2002b48 <fixloop>  // b.lo, b.ul, b.last

0000000002002b70 <relocate_done>:
 2002b70:	d5384241 	mrs	x1, currentel
 2002b74:	f100303f 	cmp	x1, #0xc
 2002b78:	540000c0 	b.eq	2002b90 <relocate_done+0x20>  // b.none
 2002b7c:	f100203f 	cmp	x1, #0x8
 2002b80:	540000c0 	b.eq	2002b98 <relocate_done+0x28>  // b.none
 2002b84:	f100103f 	cmp	x1, #0x4
 2002b88:	540000c0 	b.eq	2002ba0 <relocate_done+0x30>  // b.none
 2002b8c:	94000311 	bl	20037d0 <hang>
 2002b90:	d53e1000 	mrs	x0, sctlr_el3
 2002b94:	14000004 	b	2002ba4 <relocate_done+0x34>
 2002b98:	d53c1000 	mrs	x0, sctlr_el2
 2002b9c:	14000002 	b	2002ba4 <relocate_done+0x34>
 2002ba0:	d5381000 	mrs	x0, sctlr_el1
 2002ba4:	361000e0 	tbz	w0, #2, 2002bc0 <relocate_done+0x50>
 2002ba8:	36600060 	tbz	w0, #12, 2002bb4 <relocate_done+0x44>
 2002bac:	d508751f 	ic	iallu
 2002bb0:	d5033fdf 	isb
 2002bb4:	a94107e0 	ldp	x0, x1, [sp, #16]
 2002bb8:	97ffff6a 	bl	2002960 <__asm_flush_dcache_range>
 2002bbc:	97ffff76 	bl	2002994 <__asm_flush_l3_dcache>
 2002bc0:	a8c27bfd 	ldp	x29, x30, [sp], #32
 2002bc4:	d65f03c0 	ret

0000000002002bc8 <show_regs>:
 2002bc8:	a9bd53f3 	stp	x19, x20, [sp, #-48]!
 2002bcc:	a9015bf5 	stp	x21, x22, [sp, #16]
 2002bd0:	a9027bf7 	stp	x23, x30, [sp, #32]
 2002bd4:	aa0003f7 	mov	x23, x0
 2002bd8:	f9400241 	ldr	x1, [x18]
 2002bdc:	37000601 	tbnz	w1, #0, 2002c9c <show_regs+0xd4>
 2002be0:	aa1703f5 	mov	x21, x23
 2002be4:	f9407ee2 	ldr	x2, [x23, #248]
 2002be8:	f84106a1 	ldr	x1, [x21], #16
 2002bec:	f0000000 	adrp	x0, 2005000 <vscnprintf+0x18>
 2002bf0:	913ca000 	add	x0, x0, #0xf28
 2002bf4:	94000947 	bl	2005110 <printf>
 2002bf8:	d2800013 	mov	x19, #0x0                   	// #0
 2002bfc:	910022f6 	add	x22, x23, #0x8
 2002c00:	f0000014 	adrp	x20, 2005000 <vscnprintf+0x18>
 2002c04:	913d2294 	add	x20, x20, #0xf48
 2002c08:	f8737aa4 	ldr	x4, [x21, x19, lsl #3]
 2002c0c:	11000663 	add	w3, w19, #0x1
 2002c10:	f8737ac2 	ldr	x2, [x22, x19, lsl #3]
 2002c14:	2a1303e1 	mov	w1, w19
 2002c18:	aa1403e0 	mov	x0, x20
 2002c1c:	9400093d 	bl	2005110 <printf>
 2002c20:	91000a73 	add	x19, x19, #0x2
 2002c24:	f1007a7f 	cmp	x19, #0x1e
 2002c28:	54ffff01 	b.ne	2002c08 <show_regs+0x40>  // b.any
 2002c2c:	f0000000 	adrp	x0, 2005000 <vscnprintf+0x18>
 2002c30:	9132a000 	add	x0, x0, #0xca8
 2002c34:	94000937 	bl	2005110 <printf>
 2002c38:	f94002f6 	ldr	x22, [x23]
 2002c3c:	927ef6d6 	and	x22, x22, #0xfffffffffffffffc
 2002c40:	f0000000 	adrp	x0, 2005000 <vscnprintf+0x18>
 2002c44:	913da000 	add	x0, x0, #0xf68
 2002c48:	94000932 	bl	2005110 <printf>
 2002c4c:	d10042d4 	sub	x20, x22, #0x10
 2002c50:	12800073 	mov	w19, #0xfffffffc            	// #-4
 2002c54:	f0000015 	adrp	x21, 2005000 <vscnprintf+0x18>
 2002c58:	913dc2b5 	add	x21, x21, #0xf70
 2002c5c:	b8404681 	ldr	w1, [x20], #4
 2002c60:	aa1503e0 	mov	x0, x21
 2002c64:	9400092b 	bl	2005110 <printf>
 2002c68:	31000673 	adds	w19, w19, #0x1
 2002c6c:	54ffff81 	b.ne	2002c5c <show_regs+0x94>  // b.any
 2002c70:	b94002c1 	ldr	w1, [x22]
 2002c74:	f0000000 	adrp	x0, 2005000 <vscnprintf+0x18>
 2002c78:	913de000 	add	x0, x0, #0xf78
 2002c7c:	94000925 	bl	2005110 <printf>
 2002c80:	f0000000 	adrp	x0, 2005000 <vscnprintf+0x18>
 2002c84:	9132a000 	add	x0, x0, #0xca8
 2002c88:	94000922 	bl	2005110 <printf>
 2002c8c:	a9415bf5 	ldp	x21, x22, [sp, #16]
 2002c90:	a9427bf7 	ldp	x23, x30, [sp, #32]
 2002c94:	a8c353f3 	ldp	x19, x20, [sp], #48
 2002c98:	d65f03c0 	ret
 2002c9c:	f9402e41 	ldr	x1, [x18, #88]
 2002ca0:	f9402e42 	ldr	x2, [x18, #88]
 2002ca4:	f9407ee3 	ldr	x3, [x23, #248]
 2002ca8:	f94002e0 	ldr	x0, [x23]
 2002cac:	cb020062 	sub	x2, x3, x2
 2002cb0:	cb010001 	sub	x1, x0, x1
 2002cb4:	f0000000 	adrp	x0, 2005000 <vscnprintf+0x18>
 2002cb8:	913c0000 	add	x0, x0, #0xf00
 2002cbc:	94000915 	bl	2005110 <printf>
 2002cc0:	17ffffc8 	b	2002be0 <show_regs+0x18>

0000000002002cc4 <do_bad_sync>:
 2002cc4:	a9bf7bf3 	stp	x19, x30, [sp, #-16]!
 2002cc8:	aa0003f3 	mov	x19, x0
 2002ccc:	f0000000 	adrp	x0, 2005000 <vscnprintf+0x18>
 2002cd0:	911ae000 	add	x0, x0, #0x6b8
 2002cd4:	9400090f 	bl	2005110 <printf>
 2002cd8:	aa1303e0 	mov	x0, x19
 2002cdc:	97ffffbb 	bl	2002bc8 <show_regs>
 2002ce0:	f0000000 	adrp	x0, 2005000 <vscnprintf+0x18>
 2002ce4:	911bc000 	add	x0, x0, #0x6f0
 2002ce8:	940002bf 	bl	20037e4 <panic>

0000000002002cec <do_bad_irq>:
 2002cec:	a9bf7bf3 	stp	x19, x30, [sp, #-16]!
 2002cf0:	aa0003f3 	mov	x19, x0
 2002cf4:	f0000000 	adrp	x0, 2005000 <vscnprintf+0x18>
 2002cf8:	911a4000 	add	x0, x0, #0x690
 2002cfc:	94000905 	bl	2005110 <printf>
 2002d00:	aa1303e0 	mov	x0, x19
 2002d04:	97ffffb1 	bl	2002bc8 <show_regs>
 2002d08:	f0000000 	adrp	x0, 2005000 <vscnprintf+0x18>
 2002d0c:	911bc000 	add	x0, x0, #0x6f0
 2002d10:	940002b5 	bl	20037e4 <panic>

0000000002002d14 <do_bad_fiq>:
 2002d14:	a9bf7bf3 	stp	x19, x30, [sp, #-16]!
 2002d18:	aa0003f3 	mov	x19, x0
 2002d1c:	f0000000 	adrp	x0, 2005000 <vscnprintf+0x18>
 2002d20:	9119a000 	add	x0, x0, #0x668
 2002d24:	940008fb 	bl	2005110 <printf>
 2002d28:	aa1303e0 	mov	x0, x19
 2002d2c:	97ffffa7 	bl	2002bc8 <show_regs>
 2002d30:	f0000000 	adrp	x0, 2005000 <vscnprintf+0x18>
 2002d34:	911bc000 	add	x0, x0, #0x6f0
 2002d38:	940002ab 	bl	20037e4 <panic>

0000000002002d3c <do_bad_error>:
 2002d3c:	a9bf7bf3 	stp	x19, x30, [sp, #-16]!
 2002d40:	aa0003f3 	mov	x19, x0
 2002d44:	f0000000 	adrp	x0, 2005000 <vscnprintf+0x18>
 2002d48:	9118e000 	add	x0, x0, #0x638
 2002d4c:	940008f1 	bl	2005110 <printf>
 2002d50:	aa1303e0 	mov	x0, x19
 2002d54:	97ffff9d 	bl	2002bc8 <show_regs>
 2002d58:	f0000000 	adrp	x0, 2005000 <vscnprintf+0x18>
 2002d5c:	911bc000 	add	x0, x0, #0x6f0
 2002d60:	940002a1 	bl	20037e4 <panic>

0000000002002d64 <do_sync>:
 2002d64:	a9bf7bf3 	stp	x19, x30, [sp, #-16]!
 2002d68:	aa0003f3 	mov	x19, x0
 2002d6c:	f0000000 	adrp	x0, 2005000 <vscnprintf+0x18>
 2002d70:	911e2000 	add	x0, x0, #0x788
 2002d74:	940008e7 	bl	2005110 <printf>
 2002d78:	aa1303e0 	mov	x0, x19
 2002d7c:	97ffff93 	bl	2002bc8 <show_regs>
 2002d80:	d5384240 	mrs	x0, currentel
 2002d84:	d5033f9f 	dsb	sy
 2002d88:	53027c00 	lsr	w0, w0, #2
 2002d8c:	d2800001 	mov	x1, #0x0                   	// #0
 2002d90:	7100081f 	cmp	w0, #0x2
 2002d94:	540001a0 	b.eq	2002dc8 <do_sync+0x64>  // b.none
 2002d98:	d5033fdf 	isb
 2002d9c:	d5384240 	mrs	x0, currentel
 2002da0:	53027c00 	lsr	w0, w0, #2
 2002da4:	d5033f9f 	dsb	sy
 2002da8:	7100041f 	cmp	w0, #0x1
 2002dac:	54000120 	b.eq	2002dd0 <do_sync+0x6c>  // b.none
 2002db0:	7100081f 	cmp	w0, #0x2
 2002db4:	540001e0 	b.eq	2002df0 <do_sync+0x8c>  // b.none
 2002db8:	71000c1f 	cmp	w0, #0x3
 2002dbc:	540001e0 	b.eq	2002df8 <do_sync+0x94>  // b.none
 2002dc0:	d2800002 	mov	x2, #0x0                   	// #0
 2002dc4:	14000004 	b	2002dd4 <do_sync+0x70>
 2002dc8:	d53c6081 	mrs	x1, hpfar_el2
 2002dcc:	17fffff3 	b	2002d98 <do_sync+0x34>
 2002dd0:	d5386002 	mrs	x2, far_el1
 2002dd4:	d5033fdf 	isb
 2002dd8:	f0000000 	adrp	x0, 2005000 <vscnprintf+0x18>
 2002ddc:	911ee000 	add	x0, x0, #0x7b8
 2002de0:	940008cc 	bl	2005110 <printf>
 2002de4:	f0000000 	adrp	x0, 2005000 <vscnprintf+0x18>
 2002de8:	911bc000 	add	x0, x0, #0x6f0
 2002dec:	9400027e 	bl	20037e4 <panic>
 2002df0:	d53c6002 	mrs	x2, far_el2
 2002df4:	17fffff8 	b	2002dd4 <do_sync+0x70>
 2002df8:	d53e6002 	mrs	x2, far_el3
 2002dfc:	17fffff6 	b	2002dd4 <do_sync+0x70>

0000000002002e00 <do_irq>:
 2002e00:	a9bf7bf3 	stp	x19, x30, [sp, #-16]!
 2002e04:	aa0003f3 	mov	x19, x0
 2002e08:	f0000000 	adrp	x0, 2005000 <vscnprintf+0x18>
 2002e0c:	911da000 	add	x0, x0, #0x768
 2002e10:	940008c0 	bl	2005110 <printf>
 2002e14:	aa1303e0 	mov	x0, x19
 2002e18:	97ffff6c 	bl	2002bc8 <show_regs>
 2002e1c:	f0000000 	adrp	x0, 2005000 <vscnprintf+0x18>
 2002e20:	911bc000 	add	x0, x0, #0x6f0
 2002e24:	94000270 	bl	20037e4 <panic>

0000000002002e28 <do_fiq>:
 2002e28:	a9bf7bf3 	stp	x19, x30, [sp, #-16]!
 2002e2c:	aa0003f3 	mov	x19, x0
 2002e30:	f0000000 	adrp	x0, 2005000 <vscnprintf+0x18>
 2002e34:	911d2000 	add	x0, x0, #0x748
 2002e38:	940008b6 	bl	2005110 <printf>
 2002e3c:	aa1303e0 	mov	x0, x19
 2002e40:	97ffff62 	bl	2002bc8 <show_regs>
 2002e44:	f0000000 	adrp	x0, 2005000 <vscnprintf+0x18>
 2002e48:	911bc000 	add	x0, x0, #0x6f0
 2002e4c:	94000266 	bl	20037e4 <panic>

0000000002002e50 <do_error>:
 2002e50:	a9bf7bf3 	stp	x19, x30, [sp, #-16]!
 2002e54:	aa0003f3 	mov	x19, x0
 2002e58:	f0000000 	adrp	x0, 2005000 <vscnprintf+0x18>
 2002e5c:	911ca000 	add	x0, x0, #0x728
 2002e60:	940008ac 	bl	2005110 <printf>
 2002e64:	aa1303e0 	mov	x0, x19
 2002e68:	97ffff58 	bl	2002bc8 <show_regs>
 2002e6c:	f0000000 	adrp	x0, 2005000 <vscnprintf+0x18>
 2002e70:	911bc000 	add	x0, x0, #0x6f0
 2002e74:	9400025c 	bl	20037e4 <panic>
	...

0000000002003000 <vectors>:
 2003000:	a9bf7bfd 	stp	x29, x30, [sp, #-16]!
 2003004:	94000003 	bl	2003010 <_exception_entry>
 2003008:	97ffff2f 	bl	2002cc4 <do_bad_sync>
 200300c:	14000040 	b	200310c <exception_exit>

0000000002003010 <_exception_entry>:
 2003010:	a9bf73fb 	stp	x27, x28, [sp, #-16]!
 2003014:	a9bf6bf9 	stp	x25, x26, [sp, #-16]!
 2003018:	a9bf63f7 	stp	x23, x24, [sp, #-16]!
 200301c:	a9bf5bf5 	stp	x21, x22, [sp, #-16]!
 2003020:	a9bf53f3 	stp	x19, x20, [sp, #-16]!
 2003024:	a9bf4bf1 	stp	x17, x18, [sp, #-16]!
 2003028:	a9bf43ef 	stp	x15, x16, [sp, #-16]!
 200302c:	a9bf3bed 	stp	x13, x14, [sp, #-16]!
 2003030:	a9bf33eb 	stp	x11, x12, [sp, #-16]!
 2003034:	a9bf2be9 	stp	x9, x10, [sp, #-16]!
 2003038:	a9bf23e7 	stp	x7, x8, [sp, #-16]!
 200303c:	a9bf1be5 	stp	x5, x6, [sp, #-16]!
 2003040:	a9bf13e3 	stp	x3, x4, [sp, #-16]!
 2003044:	a9bf0be1 	stp	x1, x2, [sp, #-16]!
 2003048:	14000012 	b	2003090 <_save_el_regs>
 200304c:	d503201f 	nop
 2003050:	d503201f 	nop
 2003054:	d503201f 	nop
 2003058:	d503201f 	nop
 200305c:	d503201f 	nop
 2003060:	d503201f 	nop
 2003064:	d503201f 	nop
 2003068:	d503201f 	nop
 200306c:	d503201f 	nop
 2003070:	d503201f 	nop
 2003074:	d503201f 	nop
 2003078:	d503201f 	nop
 200307c:	d503201f 	nop
 2003080:	a9bf7bfd 	stp	x29, x30, [sp, #-16]!
 2003084:	97ffffe3 	bl	2003010 <_exception_entry>
 2003088:	97ffff19 	bl	2002cec <do_bad_irq>
 200308c:	14000020 	b	200310c <exception_exit>

0000000002003090 <_save_el_regs>:
 2003090:	d538424b 	mrs	x11, currentel
 2003094:	f100317f 	cmp	x11, #0xc
 2003098:	540000a0 	b.eq	20030ac <_save_el_regs+0x1c>  // b.none
 200309c:	f100217f 	cmp	x11, #0x8
 20030a0:	540000c0 	b.eq	20030b8 <_save_el_regs+0x28>  // b.none
 20030a4:	f100117f 	cmp	x11, #0x4
 20030a8:	540000e0 	b.eq	20030c4 <_save_el_regs+0x34>  // b.none
 20030ac:	d53e5201 	mrs	x1, esr_el3
 20030b0:	d53e4022 	mrs	x2, elr_el3
 20030b4:	14000006 	b	20030cc <_save_el_regs+0x3c>
 20030b8:	d53c5201 	mrs	x1, esr_el2
 20030bc:	d53c4022 	mrs	x2, elr_el2
 20030c0:	14000003 	b	20030cc <_save_el_regs+0x3c>
 20030c4:	d5385201 	mrs	x1, esr_el1
 20030c8:	d5384022 	mrs	x2, elr_el1
 20030cc:	a9bf03e2 	stp	x2, x0, [sp, #-16]!
 20030d0:	910003e0 	mov	x0, sp
 20030d4:	d65f03c0 	ret
 20030d8:	d503201f 	nop
 20030dc:	d503201f 	nop
 20030e0:	d503201f 	nop
 20030e4:	d503201f 	nop
 20030e8:	d503201f 	nop
 20030ec:	d503201f 	nop
 20030f0:	d503201f 	nop
 20030f4:	d503201f 	nop
 20030f8:	d503201f 	nop
 20030fc:	d503201f 	nop
 2003100:	a9bf7bfd 	stp	x29, x30, [sp, #-16]!
 2003104:	97ffffc3 	bl	2003010 <_exception_entry>
 2003108:	97ffff03 	bl	2002d14 <do_bad_fiq>

000000000200310c <exception_exit>:
 200310c:	a8c103e2 	ldp	x2, x0, [sp], #16
 2003110:	d538424b 	mrs	x11, currentel
 2003114:	f100317f 	cmp	x11, #0xc
 2003118:	540000a0 	b.eq	200312c <exception_exit+0x20>  // b.none
 200311c:	f100217f 	cmp	x11, #0x8
 2003120:	540000a0 	b.eq	2003134 <exception_exit+0x28>  // b.none
 2003124:	f100117f 	cmp	x11, #0x4
 2003128:	540000a0 	b.eq	200313c <exception_exit+0x30>  // b.none
 200312c:	d51e4022 	msr	elr_el3, x2
 2003130:	14000018 	b	2003190 <_restore_regs>
 2003134:	d51c4022 	msr	elr_el2, x2
 2003138:	14000016 	b	2003190 <_restore_regs>
 200313c:	d5184022 	msr	elr_el1, x2
 2003140:	14000014 	b	2003190 <_restore_regs>
 2003144:	d503201f 	nop
 2003148:	d503201f 	nop
 200314c:	d503201f 	nop
 2003150:	d503201f 	nop
 2003154:	d503201f 	nop
 2003158:	d503201f 	nop
 200315c:	d503201f 	nop
 2003160:	d503201f 	nop
 2003164:	d503201f 	nop
 2003168:	d503201f 	nop
 200316c:	d503201f 	nop
 2003170:	d503201f 	nop
 2003174:	d503201f 	nop
 2003178:	d503201f 	nop
 200317c:	d503201f 	nop
 2003180:	a9bf7bfd 	stp	x29, x30, [sp, #-16]!
 2003184:	97ffffa3 	bl	2003010 <_exception_entry>
 2003188:	97fffeed 	bl	2002d3c <do_bad_error>
 200318c:	17ffffe0 	b	200310c <exception_exit>

0000000002003190 <_restore_regs>:
 2003190:	a8c10be1 	ldp	x1, x2, [sp], #16
 2003194:	a8c113e3 	ldp	x3, x4, [sp], #16
 2003198:	a8c11be5 	ldp	x5, x6, [sp], #16
 200319c:	a8c123e7 	ldp	x7, x8, [sp], #16
 20031a0:	a8c12be9 	ldp	x9, x10, [sp], #16
 20031a4:	a8c133eb 	ldp	x11, x12, [sp], #16
 20031a8:	a8c13bed 	ldp	x13, x14, [sp], #16
 20031ac:	a8c143ef 	ldp	x15, x16, [sp], #16
 20031b0:	a8c14bf1 	ldp	x17, x18, [sp], #16
 20031b4:	a8c153f3 	ldp	x19, x20, [sp], #16
 20031b8:	a8c15bf5 	ldp	x21, x22, [sp], #16
 20031bc:	a8c163f7 	ldp	x23, x24, [sp], #16
 20031c0:	a8c16bf9 	ldp	x25, x26, [sp], #16
 20031c4:	a8c173fb 	ldp	x27, x28, [sp], #16
 20031c8:	a8c17bfd 	ldp	x29, x30, [sp], #16
 20031cc:	d69f03e0 	eret
 20031d0:	d503201f 	nop
 20031d4:	d503201f 	nop
 20031d8:	d503201f 	nop
 20031dc:	d503201f 	nop
 20031e0:	d503201f 	nop
 20031e4:	d503201f 	nop
 20031e8:	d503201f 	nop
 20031ec:	d503201f 	nop
 20031f0:	d503201f 	nop
 20031f4:	d503201f 	nop
 20031f8:	d503201f 	nop
 20031fc:	d503201f 	nop
 2003200:	a9bf7bfd 	stp	x29, x30, [sp, #-16]!
 2003204:	97ffff83 	bl	2003010 <_exception_entry>
 2003208:	97fffed7 	bl	2002d64 <do_sync>
 200320c:	17ffffc0 	b	200310c <exception_exit>
 2003210:	d503201f 	nop
 2003214:	d503201f 	nop
 2003218:	d503201f 	nop
 200321c:	d503201f 	nop
 2003220:	d503201f 	nop
 2003224:	d503201f 	nop
 2003228:	d503201f 	nop
 200322c:	d503201f 	nop
 2003230:	d503201f 	nop
 2003234:	d503201f 	nop
 2003238:	d503201f 	nop
 200323c:	d503201f 	nop
 2003240:	d503201f 	nop
 2003244:	d503201f 	nop
 2003248:	d503201f 	nop
 200324c:	d503201f 	nop
 2003250:	d503201f 	nop
 2003254:	d503201f 	nop
 2003258:	d503201f 	nop
 200325c:	d503201f 	nop
 2003260:	d503201f 	nop
 2003264:	d503201f 	nop
 2003268:	d503201f 	nop
 200326c:	d503201f 	nop
 2003270:	d503201f 	nop
 2003274:	d503201f 	nop
 2003278:	d503201f 	nop
 200327c:	d503201f 	nop
 2003280:	a9bf7bfd 	stp	x29, x30, [sp, #-16]!
 2003284:	97ffff63 	bl	2003010 <_exception_entry>
 2003288:	97fffede 	bl	2002e00 <do_irq>
 200328c:	17ffffa0 	b	200310c <exception_exit>
 2003290:	d503201f 	nop
 2003294:	d503201f 	nop
 2003298:	d503201f 	nop
 200329c:	d503201f 	nop
 20032a0:	d503201f 	nop
 20032a4:	d503201f 	nop
 20032a8:	d503201f 	nop
 20032ac:	d503201f 	nop
 20032b0:	d503201f 	nop
 20032b4:	d503201f 	nop
 20032b8:	d503201f 	nop
 20032bc:	d503201f 	nop
 20032c0:	d503201f 	nop
 20032c4:	d503201f 	nop
 20032c8:	d503201f 	nop
 20032cc:	d503201f 	nop
 20032d0:	d503201f 	nop
 20032d4:	d503201f 	nop
 20032d8:	d503201f 	nop
 20032dc:	d503201f 	nop
 20032e0:	d503201f 	nop
 20032e4:	d503201f 	nop
 20032e8:	d503201f 	nop
 20032ec:	d503201f 	nop
 20032f0:	d503201f 	nop
 20032f4:	d503201f 	nop
 20032f8:	d503201f 	nop
 20032fc:	d503201f 	nop
 2003300:	a9bf7bfd 	stp	x29, x30, [sp, #-16]!
 2003304:	97ffff43 	bl	2003010 <_exception_entry>
 2003308:	97fffec8 	bl	2002e28 <do_fiq>
 200330c:	17ffff80 	b	200310c <exception_exit>
 2003310:	d503201f 	nop
 2003314:	d503201f 	nop
 2003318:	d503201f 	nop
 200331c:	d503201f 	nop
 2003320:	d503201f 	nop
 2003324:	d503201f 	nop
 2003328:	d503201f 	nop
 200332c:	d503201f 	nop
 2003330:	d503201f 	nop
 2003334:	d503201f 	nop
 2003338:	d503201f 	nop
 200333c:	d503201f 	nop
 2003340:	d503201f 	nop
 2003344:	d503201f 	nop
 2003348:	d503201f 	nop
 200334c:	d503201f 	nop
 2003350:	d503201f 	nop
 2003354:	d503201f 	nop
 2003358:	d503201f 	nop
 200335c:	d503201f 	nop
 2003360:	d503201f 	nop
 2003364:	d503201f 	nop
 2003368:	d503201f 	nop
 200336c:	d503201f 	nop
 2003370:	d503201f 	nop
 2003374:	d503201f 	nop
 2003378:	d503201f 	nop
 200337c:	d503201f 	nop
 2003380:	a9bf7bfd 	stp	x29, x30, [sp, #-16]!
 2003384:	97ffff23 	bl	2003010 <_exception_entry>
 2003388:	97fffeb2 	bl	2002e50 <do_error>
 200338c:	17ffff60 	b	200310c <exception_exit>

0000000002003390 <putc>:
 2003390:	a9bf7bf3 	stp	x19, x30, [sp, #-16]!
 2003394:	12001c13 	and	w19, w0, #0xff
 2003398:	71002a7f 	cmp	w19, #0xa
 200339c:	54000140 	b.eq	20033c4 <putc+0x34>  // b.none
 20033a0:	d2bfd6a1 	mov	x1, #0xfeb50000            	// #4273274880
 20033a4:	b9401420 	ldr	w0, [x1, #20]
 20033a8:	d5033fbf 	dmb	sy
 20033ac:	3637ffc0 	tbz	w0, #6, 20033a4 <putc+0x14>
 20033b0:	d5033fbf 	dmb	sy
 20033b4:	d2bfd6a0 	mov	x0, #0xfeb50000            	// #4273274880
 20033b8:	b9000013 	str	w19, [x0]
 20033bc:	a8c17bf3 	ldp	x19, x30, [sp], #16
 20033c0:	d65f03c0 	ret
 20033c4:	528001a0 	mov	w0, #0xd                   	// #13
 20033c8:	97fffff2 	bl	2003390 <putc>
 20033cc:	17fffff5 	b	20033a0 <putc+0x10>

00000000020033d0 <getc>:
 20033d0:	d2bfd6a1 	mov	x1, #0xfeb50000            	// #4273274880
 20033d4:	b9401420 	ldr	w0, [x1, #20]
 20033d8:	d5033fbf 	dmb	sy
 20033dc:	3607ffc0 	tbz	w0, #0, 20033d4 <getc+0x4>
 20033e0:	d2bfd6a0 	mov	x0, #0xfeb50000            	// #4273274880
 20033e4:	b9400000 	ldr	w0, [x0]
 20033e8:	d5033fbf 	dmb	sy
 20033ec:	12001c00 	and	w0, w0, #0xff
 20033f0:	d65f03c0 	ret

00000000020033f4 <puts>:
 20033f4:	a9be53f3 	stp	x19, x20, [sp, #-32]!
 20033f8:	f9000bfe 	str	x30, [sp, #16]
 20033fc:	aa0003f3 	mov	x19, x0
 2003400:	39400000 	ldrb	w0, [x0]
 2003404:	34000180 	cbz	w0, 2003434 <puts+0x40>
 2003408:	528001b4 	mov	w20, #0xd                   	// #13
 200340c:	14000005 	b	2003420 <puts+0x2c>
 2003410:	38401660 	ldrb	w0, [x19], #1
 2003414:	97ffffdf 	bl	2003390 <putc>
 2003418:	39400260 	ldrb	w0, [x19]
 200341c:	340000c0 	cbz	w0, 2003434 <puts+0x40>
 2003420:	7100281f 	cmp	w0, #0xa
 2003424:	54ffff61 	b.ne	2003410 <puts+0x1c>  // b.any
 2003428:	2a1403e0 	mov	w0, w20
 200342c:	97ffffd9 	bl	2003390 <putc>
 2003430:	17fffff8 	b	2003410 <puts+0x1c>
 2003434:	f9400bfe 	ldr	x30, [sp, #16]
 2003438:	a8c253f3 	ldp	x19, x20, [sp], #32
 200343c:	d65f03c0 	ret

0000000002003440 <uart_init>:
 2003440:	d65f03c0 	ret

0000000002003444 <do_help>:
 2003444:	a9bc53f3 	stp	x19, x20, [sp, #-64]!
 2003448:	a9015bf5 	stp	x21, x22, [sp, #16]
 200344c:	a90263f7 	stp	x23, x24, [sp, #32]
 2003450:	f9001bfe 	str	x30, [sp, #48]
 2003454:	aa0003f5 	mov	x21, x0
 2003458:	2a0103f6 	mov	w22, w1
 200345c:	2a0203f7 	mov	w23, w2
 2003460:	aa0303f8 	mov	x24, x3
 2003464:	f0000014 	adrp	x20, 2006000 <names.0+0x2c0>
 2003468:	913d6294 	add	x20, x20, #0xf58
 200346c:	90000033 	adrp	x19, 2007000 <_rock_list_2_cmd_2_switch_el>
 2003470:	9101c273 	add	x19, x19, #0x70
 2003474:	cb140273 	sub	x19, x19, x20
 2003478:	9343fe73 	asr	x19, x19, #3
 200347c:	d28db6e0 	mov	x0, #0x6db7                	// #28087
 2003480:	f2b6db60 	movk	x0, #0xb6db, lsl #16
 2003484:	f2db6da0 	movk	x0, #0xdb6d, lsl #32
 2003488:	f2edb6c0 	movk	x0, #0x6db6, lsl #48
 200348c:	9b007e73 	mul	x19, x19, x0
 2003490:	2a1303e1 	mov	w1, w19
 2003494:	d0000000 	adrp	x0, 2005000 <vscnprintf+0x18>
 2003498:	91312000 	add	x0, x0, #0xc48
 200349c:	9400071d 	bl	2005110 <printf>
 20034a0:	2a1303e1 	mov	w1, w19
 20034a4:	d0000000 	adrp	x0, 2005000 <vscnprintf+0x18>
 20034a8:	9131a000 	add	x0, x0, #0xc68
 20034ac:	94000719 	bl	2005110 <printf>
 20034b0:	aa1803e5 	mov	x5, x24
 20034b4:	2a1703e4 	mov	w4, w23
 20034b8:	2a1603e3 	mov	w3, w22
 20034bc:	aa1503e2 	mov	x2, x21
 20034c0:	2a1303e1 	mov	w1, w19
 20034c4:	aa1403e0 	mov	x0, x20
 20034c8:	97fff67f 	bl	2000ec4 <_do_help>
 20034cc:	a9415bf5 	ldp	x21, x22, [sp, #16]
 20034d0:	a94263f7 	ldp	x23, x24, [sp, #32]
 20034d4:	f9401bfe 	ldr	x30, [sp, #48]
 20034d8:	a8c453f3 	ldp	x19, x20, [sp], #64
 20034dc:	d65f03c0 	ret

00000000020034e0 <do_version>:
 20034e0:	f81f0ffe 	str	x30, [sp, #-16]!
 20034e4:	f0000001 	adrp	x1, 2006000 <names.0+0x2c0>
 20034e8:	91380021 	add	x1, x1, #0xe00
 20034ec:	d0000000 	adrp	x0, 2005000 <vscnprintf+0x18>
 20034f0:	911f4000 	add	x0, x0, #0x7d0
 20034f4:	94000707 	bl	2005110 <printf>
 20034f8:	d0000000 	adrp	x0, 2005000 <vscnprintf+0x18>
 20034fc:	911f6000 	add	x0, x0, #0x7d8
 2003500:	97ffffbd 	bl	20033f4 <puts>
 2003504:	d0000000 	adrp	x0, 2005000 <vscnprintf+0x18>
 2003508:	91206000 	add	x0, x0, #0x818
 200350c:	97ffffba 	bl	20033f4 <puts>
 2003510:	52800140 	mov	w0, #0xa                   	// #10
 2003514:	97ffff9f 	bl	2003390 <putc>
 2003518:	528001a0 	mov	w0, #0xd                   	// #13
 200351c:	97ffff9d 	bl	2003390 <putc>
 2003520:	52800000 	mov	w0, #0x0                   	// #0
 2003524:	f84107fe 	ldr	x30, [sp], #16
 2003528:	d65f03c0 	ret

000000000200352c <do_debug>:
 200352c:	f81f0ffe 	str	x30, [sp, #-16]!
 2003530:	7100045f 	cmp	w2, #0x1
 2003534:	540001a0 	b.eq	2003568 <do_debug+0x3c>  // b.none
 2003538:	52800202 	mov	w2, #0x10                  	// #16
 200353c:	d2800001 	mov	x1, #0x0                   	// #0
 2003540:	f9400460 	ldr	x0, [x3, #8]
 2003544:	940001ec 	bl	2003cf4 <simple_strtoul>
 2003548:	12001c00 	and	w0, w0, #0xff
 200354c:	71001c1f 	cmp	w0, #0x7
 2003550:	540001a8 	b.hi	2003584 <do_debug+0x58>  // b.pmore
 2003554:	f0000001 	adrp	x1, 2006000 <names.0+0x2c0>
 2003558:	393cc020 	strb	w0, [x1, #3888]
 200355c:	52800000 	mov	w0, #0x0                   	// #0
 2003560:	f84107fe 	ldr	x30, [sp], #16
 2003564:	d65f03c0 	ret
 2003568:	f0000000 	adrp	x0, 2006000 <names.0+0x2c0>
 200356c:	397cc001 	ldrb	w1, [x0, #3888]
 2003570:	d0000000 	adrp	x0, 2005000 <vscnprintf+0x18>
 2003574:	911c2000 	add	x0, x0, #0x708
 2003578:	940006e6 	bl	2005110 <printf>
 200357c:	52800000 	mov	w0, #0x0                   	// #0
 2003580:	17fffff8 	b	2003560 <do_debug+0x34>
 2003584:	12800000 	mov	w0, #0xffffffff            	// #-1
 2003588:	17fffff6 	b	2003560 <do_debug+0x34>

000000000200358c <display_options_get_banner_priv>:
 200358c:	a9bd53f3 	stp	x19, x20, [sp, #-48]!
 2003590:	a9015bf5 	stp	x21, x22, [sp, #16]
 2003594:	f90013fe 	str	x30, [sp, #32]
 2003598:	aa0103f6 	mov	x22, x1
 200359c:	aa0203f5 	mov	x21, x2
 20035a0:	2a0303f3 	mov	w19, w3
 20035a4:	d0000001 	adrp	x1, 2005000 <vscnprintf+0x18>
 20035a8:	91164021 	add	x1, x1, #0x590
 20035ac:	d0000003 	adrp	x3, 2005000 <vscnprintf+0x18>
 20035b0:	91168063 	add	x3, x3, #0x5a0
 20035b4:	72001c1f 	tst	w0, #0xff
 20035b8:	f0000004 	adrp	x4, 2006000 <names.0+0x2c0>
 20035bc:	91380084 	add	x4, x4, #0xe00
 20035c0:	9a811063 	csel	x3, x3, x1, ne  // ne = any
 20035c4:	d0000002 	adrp	x2, 2005000 <vscnprintf+0x18>
 20035c8:	91188042 	add	x2, x2, #0x620
 20035cc:	93407e61 	sxtw	x1, w19
 20035d0:	aa1503e0 	mov	x0, x21
 20035d4:	9400069d 	bl	2005048 <snprintf>
 20035d8:	2a0003f4 	mov	w20, w0
 20035dc:	f10002df 	cmp	x22, #0x0
 20035e0:	7a401264 	ccmp	w19, w0, #0x4, ne  // ne = any
 20035e4:	5400022c 	b.gt	2003628 <display_options_get_banner_priv+0x9c>
 20035e8:	51000e61 	sub	w1, w19, #0x3
 20035ec:	6b14003f 	cmp	w1, w20
 20035f0:	1a94d020 	csel	w0, w1, w20, le
 20035f4:	7100001f 	cmp	w0, #0x0
 20035f8:	1a9fa000 	csel	w0, w0, wzr, ge  // ge = tcont
 20035fc:	4b000261 	sub	w1, w19, w0
 2003600:	d0000002 	adrp	x2, 2005000 <vscnprintf+0x18>
 2003604:	91168042 	add	x2, x2, #0x5a0
 2003608:	93407c21 	sxtw	x1, w1
 200360c:	8b20c2a0 	add	x0, x21, w0, sxtw
 2003610:	9400068e 	bl	2005048 <snprintf>
 2003614:	aa1503e0 	mov	x0, x21
 2003618:	a9415bf5 	ldp	x21, x22, [sp, #16]
 200361c:	f94013fe 	ldr	x30, [sp, #32]
 2003620:	a8c353f3 	ldp	x19, x20, [sp], #48
 2003624:	d65f03c0 	ret
 2003628:	4b000261 	sub	w1, w19, w0
 200362c:	aa1603e3 	mov	x3, x22
 2003630:	d0000002 	adrp	x2, 2005000 <vscnprintf+0x18>
 2003634:	9118a042 	add	x2, x2, #0x628
 2003638:	93407c21 	sxtw	x1, w1
 200363c:	8b20c2a0 	add	x0, x21, w0, sxtw
 2003640:	94000682 	bl	2005048 <snprintf>
 2003644:	0b000294 	add	w20, w20, w0
 2003648:	17ffffe8 	b	20035e8 <display_options_get_banner_priv+0x5c>

000000000200364c <display_options_get_banner>:
 200364c:	f81f0ffe 	str	x30, [sp, #-16]!
 2003650:	2a0203e3 	mov	w3, w2
 2003654:	aa0103e2 	mov	x2, x1
 2003658:	d2800001 	mov	x1, #0x0                   	// #0
 200365c:	97ffffcc 	bl	200358c <display_options_get_banner_priv>
 2003660:	f84107fe 	ldr	x30, [sp], #16
 2003664:	d65f03c0 	ret

0000000002003668 <display_options>:
 2003668:	f8120ffe 	str	x30, [sp, #-224]!
 200366c:	52801902 	mov	w2, #0xc8                  	// #200
 2003670:	910063e1 	add	x1, sp, #0x18
 2003674:	52800020 	mov	w0, #0x1                   	// #1
 2003678:	97fffff5 	bl	200364c <display_options_get_banner>
 200367c:	910063e1 	add	x1, sp, #0x18
 2003680:	d0000000 	adrp	x0, 2005000 <vscnprintf+0x18>
 2003684:	91186000 	add	x0, x0, #0x618
 2003688:	940006a2 	bl	2005110 <printf>
 200368c:	52800000 	mov	w0, #0x0                   	// #0
 2003690:	f84e07fe 	ldr	x30, [sp], #224
 2003694:	d65f03c0 	ret

0000000002003698 <print_size>:
 2003698:	a9be53f3 	stp	x19, x20, [sp, #-32]!
 200369c:	a9017bf5 	stp	x21, x30, [sp, #16]
 20036a0:	aa0103f4 	mov	x20, x1
 20036a4:	eb40f3ff 	cmp	xzr, x0, lsr #60
 20036a8:	54000561 	b.ne	2003754 <print_size+0xbc>  // b.any
 20036ac:	d2800643 	mov	x3, #0x32                  	// #50
 20036b0:	52800024 	mov	w4, #0x1                   	// #1
 20036b4:	9ac32401 	lsr	x1, x0, x3
 20036b8:	b5000161 	cbnz	x1, 20036e4 <print_size+0x4c>
 20036bc:	11000484 	add	w4, w4, #0x1
 20036c0:	d1002863 	sub	x3, x3, #0xa
 20036c4:	7100189f 	cmp	w4, #0x6
 20036c8:	54ffff61 	b.ne	20036b4 <print_size+0x1c>  // b.any
 20036cc:	aa1403e2 	mov	x2, x20
 20036d0:	aa0003e1 	mov	x1, x0
 20036d4:	d0000000 	adrp	x0, 2005000 <vscnprintf+0x18>
 20036d8:	91352000 	add	x0, x0, #0xd48
 20036dc:	9400068d 	bl	2005110 <printf>
 20036e0:	14000028 	b	2003780 <print_size+0xe8>
 20036e4:	d0000001 	adrp	x1, 2005000 <vscnprintf+0x18>
 20036e8:	91350021 	add	x1, x1, #0xd40
 20036ec:	38644835 	ldrb	w21, [x1, w4, uxtw]
 20036f0:	34fffef5 	cbz	w21, 20036cc <print_size+0x34>
 20036f4:	9ac32401 	lsr	x1, x0, x3
 20036f8:	92800004 	mov	x4, #0xffffffffffffffff    	// #-1
 20036fc:	9ac32084 	lsl	x4, x4, x3
 2003700:	ea240000 	bics	x0, x0, x4
 2003704:	540002e0 	b.eq	2003760 <print_size+0xc8>  // b.none
 2003708:	51000462 	sub	w2, w3, #0x1
 200370c:	d2800033 	mov	x19, #0x1                   	// #1
 2003710:	9ac22273 	lsl	x19, x19, x2
 2003714:	8b000800 	add	x0, x0, x0, lsl #2
 2003718:	8b000673 	add	x19, x19, x0, lsl #1
 200371c:	9ac32673 	lsr	x19, x19, x3
 2003720:	f100267f 	cmp	x19, #0x9
 2003724:	54000069 	b.ls	2003730 <print_size+0x98>  // b.plast
 2003728:	d1002a73 	sub	x19, x19, #0xa
 200372c:	91000421 	add	x1, x1, #0x1
 2003730:	d0000000 	adrp	x0, 2005000 <vscnprintf+0x18>
 2003734:	91356000 	add	x0, x0, #0xd58
 2003738:	94000676 	bl	2005110 <printf>
 200373c:	b4000193 	cbz	x19, 200376c <print_size+0xd4>
 2003740:	aa1303e1 	mov	x1, x19
 2003744:	d0000000 	adrp	x0, 2005000 <vscnprintf+0x18>
 2003748:	91358000 	add	x0, x0, #0xd60
 200374c:	94000671 	bl	2005110 <printf>
 2003750:	14000007 	b	200376c <print_size+0xd4>
 2003754:	d2800783 	mov	x3, #0x3c                  	// #60
 2003758:	528008b5 	mov	w21, #0x45                  	// #69
 200375c:	17ffffe6 	b	20036f4 <print_size+0x5c>
 2003760:	d0000000 	adrp	x0, 2005000 <vscnprintf+0x18>
 2003764:	91356000 	add	x0, x0, #0xd58
 2003768:	9400066a 	bl	2005110 <printf>
 200376c:	aa1403e2 	mov	x2, x20
 2003770:	2a1503e1 	mov	w1, w21
 2003774:	d0000000 	adrp	x0, 2005000 <vscnprintf+0x18>
 2003778:	9135a000 	add	x0, x0, #0xd68
 200377c:	94000665 	bl	2005110 <printf>
 2003780:	a9417bf5 	ldp	x21, x30, [sp, #16]
 2003784:	a8c253f3 	ldp	x19, x20, [sp], #32
 2003788:	d65f03c0 	ret

000000000200378c <errno_str>:
 200378c:	34000160 	cbz	w0, 20037b8 <errno_str+0x2c>
 2003790:	7100001f 	cmp	w0, #0x0
 2003794:	5400018c 	b.gt	20037c4 <errno_str+0x38>
 2003798:	4b0003e0 	neg	w0, w0
 200379c:	7101f81f 	cmp	w0, #0x7e
 20037a0:	52800fa1 	mov	w1, #0x7d                  	// #125
 20037a4:	1a813000 	csel	w0, w0, w1, cc  // cc = lo, ul, last
 20037a8:	d0000001 	adrp	x1, 2005000 <vscnprintf+0x18>
 20037ac:	91212021 	add	x1, x1, #0x848
 20037b0:	f860d820 	ldr	x0, [x1, w0, sxtw #3]
 20037b4:	d65f03c0 	ret
 20037b8:	d0000000 	adrp	x0, 2005000 <vscnprintf+0x18>
 20037bc:	9130e000 	add	x0, x0, #0xc38
 20037c0:	17fffffd 	b	20037b4 <errno_str+0x28>
 20037c4:	d0000000 	adrp	x0, 2005000 <vscnprintf+0x18>
 20037c8:	91310000 	add	x0, x0, #0xc40
 20037cc:	17fffffa 	b	20037b4 <errno_str+0x28>

00000000020037d0 <hang>:
 20037d0:	f81f0ffe 	str	x30, [sp, #-16]!
 20037d4:	d0000000 	adrp	x0, 2005000 <vscnprintf+0x18>
 20037d8:	91320000 	add	x0, x0, #0xc80
 20037dc:	97ffff06 	bl	20033f4 <puts>
 20037e0:	14000000 	b	20037e0 <hang+0x10>

00000000020037e4 <panic>:
 20037e4:	d10443ff 	sub	sp, sp, #0x110
 20037e8:	f90003fe 	str	x30, [sp]
 20037ec:	f9006fe1 	str	x1, [sp, #216]
 20037f0:	f90073e2 	str	x2, [sp, #224]
 20037f4:	f90077e3 	str	x3, [sp, #232]
 20037f8:	f9007be4 	str	x4, [sp, #240]
 20037fc:	f9007fe5 	str	x5, [sp, #248]
 2003800:	f90083e6 	str	x6, [sp, #256]
 2003804:	f90087e7 	str	x7, [sp, #264]
 2003808:	3d8017e0 	str	q0, [sp, #80]
 200380c:	3d801be1 	str	q1, [sp, #96]
 2003810:	3d801fe2 	str	q2, [sp, #112]
 2003814:	3d8023e3 	str	q3, [sp, #128]
 2003818:	3d8027e4 	str	q4, [sp, #144]
 200381c:	3d802be5 	str	q5, [sp, #160]
 2003820:	3d802fe6 	str	q6, [sp, #176]
 2003824:	3d8033e7 	str	q7, [sp, #192]
 2003828:	910443e1 	add	x1, sp, #0x110
 200382c:	f9001be1 	str	x1, [sp, #48]
 2003830:	f9001fe1 	str	x1, [sp, #56]
 2003834:	910343e1 	add	x1, sp, #0xd0
 2003838:	f90023e1 	str	x1, [sp, #64]
 200383c:	128006e1 	mov	w1, #0xffffffc8            	// #-56
 2003840:	b9004be1 	str	w1, [sp, #72]
 2003844:	12800fe1 	mov	w1, #0xffffff80            	// #-128
 2003848:	b9004fe1 	str	w1, [sp, #76]
 200384c:	a9430fe2 	ldp	x2, x3, [sp, #48]
 2003850:	a9010fe2 	stp	x2, x3, [sp, #16]
 2003854:	a9440fe2 	ldp	x2, x3, [sp, #64]
 2003858:	a9020fe2 	stp	x2, x3, [sp, #32]
 200385c:	910043e1 	add	x1, sp, #0x10
 2003860:	9400065a 	bl	20051c8 <vprintf>
 2003864:	52800140 	mov	w0, #0xa                   	// #10
 2003868:	97fffeca 	bl	2003390 <putc>
 200386c:	97ffffd9 	bl	20037d0 <hang>

0000000002003870 <printk>:
 2003870:	d11443ff 	sub	sp, sp, #0x510
 2003874:	a9007bf3 	stp	x19, x30, [sp]
 2003878:	f9026fe1 	str	x1, [sp, #1240]
 200387c:	f90273e2 	str	x2, [sp, #1248]
 2003880:	f90277e3 	str	x3, [sp, #1256]
 2003884:	f9027be4 	str	x4, [sp, #1264]
 2003888:	f9027fe5 	str	x5, [sp, #1272]
 200388c:	f90283e6 	str	x6, [sp, #1280]
 2003890:	f90287e7 	str	x7, [sp, #1288]
 2003894:	911003e1 	add	x1, sp, #0x400
 2003898:	3d801420 	str	q0, [x1, #80]
 200389c:	3d801821 	str	q1, [x1, #96]
 20038a0:	3d801c22 	str	q2, [x1, #112]
 20038a4:	3d802023 	str	q3, [x1, #128]
 20038a8:	3d802424 	str	q4, [x1, #144]
 20038ac:	3d802825 	str	q5, [x1, #160]
 20038b0:	3d802c26 	str	q6, [x1, #176]
 20038b4:	3d803027 	str	q7, [x1, #192]
 20038b8:	911443e1 	add	x1, sp, #0x510
 20038bc:	f9021be1 	str	x1, [sp, #1072]
 20038c0:	f9021fe1 	str	x1, [sp, #1080]
 20038c4:	911343e1 	add	x1, sp, #0x4d0
 20038c8:	f90223e1 	str	x1, [sp, #1088]
 20038cc:	128006e1 	mov	w1, #0xffffffc8            	// #-56
 20038d0:	b9044be1 	str	w1, [sp, #1096]
 20038d4:	12800fe1 	mov	w1, #0xffffff80            	// #-128
 20038d8:	b9044fe1 	str	w1, [sp, #1100]
 20038dc:	911003e1 	add	x1, sp, #0x400
 20038e0:	a9430c22 	ldp	x2, x3, [x1, #48]
 20038e4:	a9010fe2 	stp	x2, x3, [sp, #16]
 20038e8:	a9440c22 	ldp	x2, x3, [x1, #64]
 20038ec:	a9020fe2 	stp	x2, x3, [sp, #32]
 20038f0:	910043e2 	add	x2, sp, #0x10
 20038f4:	aa0003e1 	mov	x1, x0
 20038f8:	9100c3e0 	add	x0, sp, #0x30
 20038fc:	940005f6 	bl	20050d4 <vsprintf>
 2003900:	2a0003f3 	mov	w19, w0
 2003904:	9100c3e0 	add	x0, sp, #0x30
 2003908:	52800083 	mov	w3, #0x4                   	// #4
 200390c:	2a0303e4 	mov	w4, w3
 2003910:	1400000c 	b	2003940 <printk+0xd0>
 2003914:	39400401 	ldrb	w1, [x0, #1]
 2003918:	340001a1 	cbz	w1, 200394c <printk+0xdc>
 200391c:	7100dc3f 	cmp	w1, #0x37
 2003920:	54000268 	b.hi	200396c <printk+0xfc>  // b.pmore
 2003924:	7100bc3f 	cmp	w1, #0x2f
 2003928:	54000129 	b.ls	200394c <printk+0xdc>  // b.plast
 200392c:	5100c022 	sub	w2, w1, #0x30
 2003930:	7100205f 	cmp	w2, #0x8
 2003934:	1a843043 	csel	w3, w2, w4, cc  // cc = lo, ul, last
 2003938:	51000a73 	sub	w19, w19, #0x2
 200393c:	91000800 	add	x0, x0, #0x2
 2003940:	39400002 	ldrb	w2, [x0]
 2003944:	7100045f 	cmp	w2, #0x1
 2003948:	54fffe60 	b.eq	2003914 <printk+0xa4>  // b.none
 200394c:	f0000001 	adrp	x1, 2006000 <names.0+0x2c0>
 2003950:	397cc021 	ldrb	w1, [x1, #3888]
 2003954:	6b03003f 	cmp	w1, w3
 2003958:	5400016a 	b.ge	2003984 <printk+0x114>  // b.tcont
 200395c:	2a1303e0 	mov	w0, w19
 2003960:	a9407bf3 	ldp	x19, x30, [sp]
 2003964:	911443ff 	add	sp, sp, #0x510
 2003968:	d65f03c0 	ret
 200396c:	51018c22 	sub	w2, w1, #0x63
 2003970:	12001c42 	and	w2, w2, #0xff
 2003974:	7100045f 	cmp	w2, #0x1
 2003978:	54fffea8 	b.hi	200394c <printk+0xdc>  // b.pmore
 200397c:	2a0403e3 	mov	w3, w4
 2003980:	17ffffee 	b	2003938 <printk+0xc8>
 2003984:	97fffe9c 	bl	20033f4 <puts>
 2003988:	17fffff5 	b	200395c <printk+0xec>

000000000200398c <strcpy>:
 200398c:	d2800002 	mov	x2, #0x0                   	// #0
 2003990:	38626823 	ldrb	w3, [x1, x2]
 2003994:	38226803 	strb	w3, [x0, x2]
 2003998:	91000442 	add	x2, x2, #0x1
 200399c:	35ffffa3 	cbnz	w3, 2003990 <strcpy+0x4>
 20039a0:	d65f03c0 	ret

00000000020039a4 <strcmp>:
 20039a4:	aa0003e4 	mov	x4, x0
 20039a8:	d2800002 	mov	x2, #0x0                   	// #0
 20039ac:	38626883 	ldrb	w3, [x4, x2]
 20039b0:	38626820 	ldrb	w0, [x1, x2]
 20039b4:	4b000060 	sub	w0, w3, w0
 20039b8:	13001c00 	sxtb	w0, w0
 20039bc:	35000060 	cbnz	w0, 20039c8 <strcmp+0x24>
 20039c0:	91000442 	add	x2, x2, #0x1
 20039c4:	35ffff43 	cbnz	w3, 20039ac <strcmp+0x8>
 20039c8:	d65f03c0 	ret

00000000020039cc <strncmp>:
 20039cc:	aa0003e5 	mov	x5, x0
 20039d0:	b4000182 	cbz	x2, 2003a00 <strncmp+0x34>
 20039d4:	d2800003 	mov	x3, #0x0                   	// #0
 20039d8:	386368a4 	ldrb	w4, [x5, x3]
 20039dc:	38636820 	ldrb	w0, [x1, x3]
 20039e0:	4b000080 	sub	w0, w4, w0
 20039e4:	13001c00 	sxtb	w0, w0
 20039e8:	350000a0 	cbnz	w0, 20039fc <strncmp+0x30>
 20039ec:	34000084 	cbz	w4, 20039fc <strncmp+0x30>
 20039f0:	91000463 	add	x3, x3, #0x1
 20039f4:	eb02007f 	cmp	x3, x2
 20039f8:	54ffff01 	b.ne	20039d8 <strncmp+0xc>  // b.any
 20039fc:	d65f03c0 	ret
 2003a00:	52800000 	mov	w0, #0x0                   	// #0
 2003a04:	17fffffe 	b	20039fc <strncmp+0x30>

0000000002003a08 <strchr>:
 2003a08:	39400002 	ldrb	w2, [x0]
 2003a0c:	12001c23 	and	w3, w1, #0xff
 2003a10:	6b21005f 	cmp	w2, w1, uxtb
 2003a14:	540000e0 	b.eq	2003a30 <strchr+0x28>  // b.none
 2003a18:	340000a2 	cbz	w2, 2003a2c <strchr+0x24>
 2003a1c:	38401c02 	ldrb	w2, [x0, #1]!
 2003a20:	6b03005f 	cmp	w2, w3
 2003a24:	54ffffa1 	b.ne	2003a18 <strchr+0x10>  // b.any
 2003a28:	14000002 	b	2003a30 <strchr+0x28>
 2003a2c:	d2800000 	mov	x0, #0x0                   	// #0
 2003a30:	d65f03c0 	ret

0000000002003a34 <strlen>:
 2003a34:	39400001 	ldrb	w1, [x0]
 2003a38:	340000c1 	cbz	w1, 2003a50 <strlen+0x1c>
 2003a3c:	aa0003e1 	mov	x1, x0
 2003a40:	38401c22 	ldrb	w2, [x1, #1]!
 2003a44:	35ffffe2 	cbnz	w2, 2003a40 <strlen+0xc>
 2003a48:	cb000020 	sub	x0, x1, x0
 2003a4c:	d65f03c0 	ret
 2003a50:	aa0003e1 	mov	x1, x0
 2003a54:	17fffffd 	b	2003a48 <strlen+0x14>

0000000002003a58 <strnlen>:
 2003a58:	b4000161 	cbz	x1, 2003a84 <strnlen+0x2c>
 2003a5c:	8b010003 	add	x3, x0, x1
 2003a60:	aa0003e1 	mov	x1, x0
 2003a64:	39400022 	ldrb	w2, [x1]
 2003a68:	340000a2 	cbz	w2, 2003a7c <strnlen+0x24>
 2003a6c:	91000421 	add	x1, x1, #0x1
 2003a70:	eb03003f 	cmp	x1, x3
 2003a74:	54ffff81 	b.ne	2003a64 <strnlen+0xc>  // b.any
 2003a78:	aa0303e1 	mov	x1, x3
 2003a7c:	cb000020 	sub	x0, x1, x0
 2003a80:	d65f03c0 	ret
 2003a84:	aa0003e1 	mov	x1, x0
 2003a88:	17fffffd 	b	2003a7c <strnlen+0x24>

0000000002003a8c <memset>:
 2003a8c:	aa0003e3 	mov	x3, x0
 2003a90:	f2400804 	ands	x4, x0, #0x7
 2003a94:	54000221 	b.ne	2003ad8 <memset+0x4c>  // b.any
 2003a98:	52800103 	mov	w3, #0x8                   	// #8
 2003a9c:	92401c25 	and	x5, x1, #0xff
 2003aa0:	aa0420a4 	orr	x4, x5, x4, lsl #8
 2003aa4:	71000463 	subs	w3, w3, #0x1
 2003aa8:	54ffffc1 	b.ne	2003aa0 <memset+0x14>  // b.any
 2003aac:	f1001c5f 	cmp	x2, #0x7
 2003ab0:	54000209 	b.ls	2003af0 <memset+0x64>  // b.plast
 2003ab4:	d1002043 	sub	x3, x2, #0x8
 2003ab8:	927df063 	and	x3, x3, #0xfffffffffffffff8
 2003abc:	91002063 	add	x3, x3, #0x8
 2003ac0:	8b030003 	add	x3, x0, x3
 2003ac4:	aa0003e5 	mov	x5, x0
 2003ac8:	f80084a4 	str	x4, [x5], #8
 2003acc:	eb0300bf 	cmp	x5, x3
 2003ad0:	54ffffc1 	b.ne	2003ac8 <memset+0x3c>  // b.any
 2003ad4:	92400842 	and	x2, x2, #0x7
 2003ad8:	b40000a2 	cbz	x2, 2003aec <memset+0x60>
 2003adc:	8b020062 	add	x2, x3, x2
 2003ae0:	38001461 	strb	w1, [x3], #1
 2003ae4:	eb03005f 	cmp	x2, x3
 2003ae8:	54ffffc1 	b.ne	2003ae0 <memset+0x54>  // b.any
 2003aec:	d65f03c0 	ret
 2003af0:	aa0003e3 	mov	x3, x0
 2003af4:	17fffff9 	b	2003ad8 <memset+0x4c>

0000000002003af8 <memcpy>:
 2003af8:	eb01001f 	cmp	x0, x1
 2003afc:	54000320 	b.eq	2003b60 <memcpy+0x68>  // b.none
 2003b00:	aa010003 	orr	x3, x0, x1
 2003b04:	aa0003e4 	mov	x4, x0
 2003b08:	f2400863 	ands	x3, x3, #0x7
 2003b0c:	540001c1 	b.ne	2003b44 <memcpy+0x4c>  // b.any
 2003b10:	f1001c5f 	cmp	x2, #0x7
 2003b14:	54000189 	b.ls	2003b44 <memcpy+0x4c>  // b.plast
 2003b18:	d1002044 	sub	x4, x2, #0x8
 2003b1c:	927df084 	and	x4, x4, #0xfffffffffffffff8
 2003b20:	91002084 	add	x4, x4, #0x8
 2003b24:	f8636825 	ldr	x5, [x1, x3]
 2003b28:	f8236805 	str	x5, [x0, x3]
 2003b2c:	91002063 	add	x3, x3, #0x8
 2003b30:	eb04007f 	cmp	x3, x4
 2003b34:	54ffff81 	b.ne	2003b24 <memcpy+0x2c>  // b.any
 2003b38:	8b040021 	add	x1, x1, x4
 2003b3c:	8b040004 	add	x4, x0, x4
 2003b40:	92400842 	and	x2, x2, #0x7
 2003b44:	b40000e2 	cbz	x2, 2003b60 <memcpy+0x68>
 2003b48:	d2800003 	mov	x3, #0x0                   	// #0
 2003b4c:	38636825 	ldrb	w5, [x1, x3]
 2003b50:	38236885 	strb	w5, [x4, x3]
 2003b54:	91000463 	add	x3, x3, #0x1
 2003b58:	eb02007f 	cmp	x3, x2
 2003b5c:	54ffff81 	b.ne	2003b4c <memcpy+0x54>  // b.any
 2003b60:	d65f03c0 	ret

0000000002003b64 <strlcpy>:
 2003b64:	a9bd53f3 	stp	x19, x20, [sp, #-48]!
 2003b68:	a9015bf5 	stp	x21, x22, [sp, #16]
 2003b6c:	f90013fe 	str	x30, [sp, #32]
 2003b70:	aa0003f6 	mov	x22, x0
 2003b74:	aa0103f5 	mov	x21, x1
 2003b78:	aa0203f4 	mov	x20, x2
 2003b7c:	aa0103e0 	mov	x0, x1
 2003b80:	97ffffad 	bl	2003a34 <strlen>
 2003b84:	aa0003f3 	mov	x19, x0
 2003b88:	b4000134 	cbz	x20, 2003bac <strlcpy+0x48>
 2003b8c:	d1000680 	sub	x0, x20, #0x1
 2003b90:	eb14027f 	cmp	x19, x20
 2003b94:	9a932014 	csel	x20, x0, x19, cs  // cs = hs, nlast
 2003b98:	aa1403e2 	mov	x2, x20
 2003b9c:	aa1503e1 	mov	x1, x21
 2003ba0:	aa1603e0 	mov	x0, x22
 2003ba4:	97ffffd5 	bl	2003af8 <memcpy>
 2003ba8:	38346adf 	strb	wzr, [x22, x20]
 2003bac:	aa1303e0 	mov	x0, x19
 2003bb0:	a9415bf5 	ldp	x21, x22, [sp, #16]
 2003bb4:	f94013fe 	ldr	x30, [sp, #32]
 2003bb8:	a8c353f3 	ldp	x19, x20, [sp], #48
 2003bbc:	d65f03c0 	ret

0000000002003bc0 <memmove>:
 2003bc0:	a9bf7bf3 	stp	x19, x30, [sp, #-16]!
 2003bc4:	aa0003f3 	mov	x19, x0
 2003bc8:	eb01001f 	cmp	x0, x1
 2003bcc:	54000169 	b.ls	2003bf8 <memmove+0x38>  // b.plast
 2003bd0:	d1000443 	sub	x3, x2, #0x1
 2003bd4:	b40000c2 	cbz	x2, 2003bec <memmove+0x2c>
 2003bd8:	38636822 	ldrb	w2, [x1, x3]
 2003bdc:	38236a62 	strb	w2, [x19, x3]
 2003be0:	d1000463 	sub	x3, x3, #0x1
 2003be4:	b100047f 	cmn	x3, #0x1
 2003be8:	54ffff81 	b.ne	2003bd8 <memmove+0x18>  // b.any
 2003bec:	aa1303e0 	mov	x0, x19
 2003bf0:	a8c17bf3 	ldp	x19, x30, [sp], #16
 2003bf4:	d65f03c0 	ret
 2003bf8:	97ffffc0 	bl	2003af8 <memcpy>
 2003bfc:	17fffffc 	b	2003bec <memmove+0x2c>

0000000002003c00 <memcmp>:
 2003c00:	aa0003e5 	mov	x5, x0
 2003c04:	b4000142 	cbz	x2, 2003c2c <memcmp+0x2c>
 2003c08:	d2800003 	mov	x3, #0x0                   	// #0
 2003c0c:	386368a0 	ldrb	w0, [x5, x3]
 2003c10:	38636824 	ldrb	w4, [x1, x3]
 2003c14:	6b040000 	subs	w0, w0, w4
 2003c18:	54000081 	b.ne	2003c28 <memcmp+0x28>  // b.any
 2003c1c:	91000463 	add	x3, x3, #0x1
 2003c20:	eb02007f 	cmp	x3, x2
 2003c24:	54ffff41 	b.ne	2003c0c <memcmp+0xc>  // b.any
 2003c28:	d65f03c0 	ret
 2003c2c:	52800000 	mov	w0, #0x0                   	// #0
 2003c30:	17fffffe 	b	2003c28 <memcmp+0x28>

0000000002003c34 <_parse_integer_fixup_radix>:
 2003c34:	b9400022 	ldr	w2, [x1]
 2003c38:	350003c2 	cbnz	w2, 2003cb0 <_parse_integer_fixup_radix+0x7c>
 2003c3c:	39400002 	ldrb	w2, [x0]
 2003c40:	7100c05f 	cmp	w2, #0x30
 2003c44:	54000080 	b.eq	2003c54 <_parse_integer_fixup_radix+0x20>  // b.none
 2003c48:	52800142 	mov	w2, #0xa                   	// #10
 2003c4c:	b9000022 	str	w2, [x1]
 2003c50:	d65f03c0 	ret
 2003c54:	39400402 	ldrb	w2, [x0, #1]
 2003c58:	d0000003 	adrp	x3, 2005000 <vscnprintf+0x18>
 2003c5c:	91090063 	add	x3, x3, #0x240
 2003c60:	3862c864 	ldrb	w4, [x3, w2, sxtw]
 2003c64:	11008043 	add	w3, w2, #0x20
 2003c68:	12001c63 	and	w3, w3, #0xff
 2003c6c:	f240009f 	tst	x4, #0x1
 2003c70:	1a821062 	csel	w2, w3, w2, ne  // ne = any
 2003c74:	7101e05f 	cmp	w2, #0x78
 2003c78:	54000080 	b.eq	2003c88 <_parse_integer_fixup_radix+0x54>  // b.none
 2003c7c:	52800102 	mov	w2, #0x8                   	// #8
 2003c80:	b9000022 	str	w2, [x1]
 2003c84:	17fffff3 	b	2003c50 <_parse_integer_fixup_radix+0x1c>
 2003c88:	39400803 	ldrb	w3, [x0, #2]
 2003c8c:	d0000002 	adrp	x2, 2005000 <vscnprintf+0x18>
 2003c90:	91090042 	add	x2, x2, #0x240
 2003c94:	3863c842 	ldrb	w2, [x2, w3, sxtw]
 2003c98:	52800883 	mov	w3, #0x44                  	// #68
 2003c9c:	6a02007f 	tst	w3, w2
 2003ca0:	54fffee0 	b.eq	2003c7c <_parse_integer_fixup_radix+0x48>  // b.none
 2003ca4:	52800202 	mov	w2, #0x10                  	// #16
 2003ca8:	b9000022 	str	w2, [x1]
 2003cac:	14000003 	b	2003cb8 <_parse_integer_fixup_radix+0x84>
 2003cb0:	7100405f 	cmp	w2, #0x10
 2003cb4:	54fffce1 	b.ne	2003c50 <_parse_integer_fixup_radix+0x1c>  // b.any
 2003cb8:	39400001 	ldrb	w1, [x0]
 2003cbc:	7100c03f 	cmp	w1, #0x30
 2003cc0:	54fffc81 	b.ne	2003c50 <_parse_integer_fixup_radix+0x1c>  // b.any
 2003cc4:	39400401 	ldrb	w1, [x0, #1]
 2003cc8:	d0000002 	adrp	x2, 2005000 <vscnprintf+0x18>
 2003ccc:	91090042 	add	x2, x2, #0x240
 2003cd0:	3861c843 	ldrb	w3, [x2, w1, sxtw]
 2003cd4:	11008022 	add	w2, w1, #0x20
 2003cd8:	12001c42 	and	w2, w2, #0xff
 2003cdc:	f240007f 	tst	x3, #0x1
 2003ce0:	1a811041 	csel	w1, w2, w1, ne  // ne = any
 2003ce4:	91000802 	add	x2, x0, #0x2
 2003ce8:	7101e03f 	cmp	w1, #0x78
 2003cec:	9a800040 	csel	x0, x2, x0, eq  // eq = none
 2003cf0:	17ffffd8 	b	2003c50 <_parse_integer_fixup_radix+0x1c>

0000000002003cf4 <simple_strtoul>:
 2003cf4:	a9be7bf3 	stp	x19, x30, [sp, #-32]!
 2003cf8:	aa0103f3 	mov	x19, x1
 2003cfc:	b9001fe2 	str	w2, [sp, #28]
 2003d00:	910073e1 	add	x1, sp, #0x1c
 2003d04:	97ffffcc 	bl	2003c34 <_parse_integer_fixup_radix>
 2003d08:	aa0003e5 	mov	x5, x0
 2003d0c:	39400002 	ldrb	w2, [x0]
 2003d10:	d0000000 	adrp	x0, 2005000 <vscnprintf+0x18>
 2003d14:	91090000 	add	x0, x0, #0x240
 2003d18:	3862c801 	ldrb	w1, [x0, w2, sxtw]
 2003d1c:	52800880 	mov	w0, #0x44                  	// #68
 2003d20:	6a00003f 	tst	w1, w0
 2003d24:	54000380 	b.eq	2003d94 <simple_strtoul+0xa0>  // b.none
 2003d28:	2a0203e3 	mov	w3, w2
 2003d2c:	b9401fe6 	ldr	w6, [sp, #28]
 2003d30:	d2800000 	mov	x0, #0x0                   	// #0
 2003d34:	d0000007 	adrp	x7, 2005000 <vscnprintf+0x18>
 2003d38:	910900e7 	add	x7, x7, #0x240
 2003d3c:	52800888 	mov	w8, #0x44                  	// #68
 2003d40:	14000011 	b	2003d84 <simple_strtoul+0x90>
 2003d44:	51008042 	sub	w2, w2, #0x20
 2003d48:	12001c42 	and	w2, w2, #0xff
 2003d4c:	5100dc42 	sub	w2, w2, #0x37
 2003d50:	93407c44 	sxtw	x4, w2
 2003d54:	5100dc62 	sub	w2, w3, #0x37
 2003d58:	93407c42 	sxtw	x2, w2
 2003d5c:	f27f003f 	tst	x1, #0x2
 2003d60:	9a840042 	csel	x2, x2, x4, eq  // eq = none
 2003d64:	eb0200df 	cmp	x6, x2
 2003d68:	54000189 	b.ls	2003d98 <simple_strtoul+0xa4>  // b.plast
 2003d6c:	9b0008c0 	madd	x0, x6, x0, x2
 2003d70:	38401ca2 	ldrb	w2, [x5, #1]!
 2003d74:	2a0203e3 	mov	w3, w2
 2003d78:	3862c8e1 	ldrb	w1, [x7, w2, sxtw]
 2003d7c:	6a08003f 	tst	w1, w8
 2003d80:	540000c0 	b.eq	2003d98 <simple_strtoul+0xa4>  // b.none
 2003d84:	3617fe01 	tbz	w1, #2, 2003d44 <simple_strtoul+0x50>
 2003d88:	5100c062 	sub	w2, w3, #0x30
 2003d8c:	93407c42 	sxtw	x2, w2
 2003d90:	17fffff5 	b	2003d64 <simple_strtoul+0x70>
 2003d94:	d2800000 	mov	x0, #0x0                   	// #0
 2003d98:	b4000053 	cbz	x19, 2003da0 <simple_strtoul+0xac>
 2003d9c:	f9000265 	str	x5, [x19]
 2003da0:	a8c27bf3 	ldp	x19, x30, [sp], #32
 2003da4:	d65f03c0 	ret

0000000002003da8 <put_dec_trunc>:
 2003da8:	aa0003e5 	mov	x5, x0
 2003dac:	d3441c26 	ubfx	x6, x1, #4, #4
 2003db0:	d3482c23 	ubfx	x3, x1, #8, #4
 2003db4:	530c7c20 	lsr	w0, w1, #12
 2003db8:	0b0300c2 	add	w2, w6, w3
 2003dbc:	0b000042 	add	w2, w2, w0
 2003dc0:	0b020442 	add	w2, w2, w2, lsl #1
 2003dc4:	12000c21 	and	w1, w1, #0xf
 2003dc8:	0b020421 	add	w1, w1, w2, lsl #1
 2003dcc:	528019a2 	mov	w2, #0xcd                  	// #205
 2003dd0:	1b027c22 	mul	w2, w1, w2
 2003dd4:	530b7c42 	lsr	w2, w2, #11
 2003dd8:	0b020844 	add	w4, w2, w2, lsl #2
 2003ddc:	4b040421 	sub	w1, w1, w4, lsl #1
 2003de0:	1100c021 	add	w1, w1, #0x30
 2003de4:	390000a1 	strb	w1, [x5]
 2003de8:	0b000c04 	add	w4, w0, w0, lsl #3
 2003dec:	0b060084 	add	w4, w4, w6
 2003df0:	0b030861 	add	w1, w3, w3, lsl #2
 2003df4:	0b020022 	add	w2, w1, w2
 2003df8:	2b040042 	adds	w2, w2, w4
 2003dfc:	54000061 	b.ne	2003e08 <put_dec_trunc+0x60>  // b.any
 2003e00:	910004a0 	add	x0, x5, #0x1
 2003e04:	d65f03c0 	ret
 2003e08:	528019a1 	mov	w1, #0xcd                  	// #205
 2003e0c:	1b017c41 	mul	w1, w2, w1
 2003e10:	530b7c21 	lsr	w1, w1, #11
 2003e14:	0b010824 	add	w4, w1, w1, lsl #2
 2003e18:	4b040442 	sub	w2, w2, w4, lsl #1
 2003e1c:	1100c042 	add	w2, w2, #0x30
 2003e20:	390004a2 	strb	w2, [x5, #1]
 2003e24:	0b030423 	add	w3, w1, w3, lsl #1
 2003e28:	2a030001 	orr	w1, w0, w3
 2003e2c:	35000061 	cbnz	w1, 2003e38 <put_dec_trunc+0x90>
 2003e30:	910008a0 	add	x0, x5, #0x2
 2003e34:	17fffff4 	b	2003e04 <put_dec_trunc+0x5c>
 2003e38:	528001a1 	mov	w1, #0xd                   	// #13
 2003e3c:	1b017c61 	mul	w1, w3, w1
 2003e40:	53077c21 	lsr	w1, w1, #7
 2003e44:	0b010822 	add	w2, w1, w1, lsl #2
 2003e48:	4b020463 	sub	w3, w3, w2, lsl #1
 2003e4c:	1100c063 	add	w3, w3, #0x30
 2003e50:	390008a3 	strb	w3, [x5, #2]
 2003e54:	2b000820 	adds	w0, w1, w0, lsl #2
 2003e58:	54000061 	b.ne	2003e64 <put_dec_trunc+0xbc>  // b.any
 2003e5c:	91000ca0 	add	x0, x5, #0x3
 2003e60:	17ffffe9 	b	2003e04 <put_dec_trunc+0x5c>
 2003e64:	528019a1 	mov	w1, #0xcd                  	// #205
 2003e68:	1b017c01 	mul	w1, w0, w1
 2003e6c:	530b7c21 	lsr	w1, w1, #11
 2003e70:	0b010822 	add	w2, w1, w1, lsl #2
 2003e74:	4b020400 	sub	w0, w0, w2, lsl #1
 2003e78:	1100c000 	add	w0, w0, #0x30
 2003e7c:	39000ca0 	strb	w0, [x5, #3]
 2003e80:	910010a0 	add	x0, x5, #0x4
 2003e84:	34fffc01 	cbz	w1, 2003e04 <put_dec_trunc+0x5c>
 2003e88:	910014a0 	add	x0, x5, #0x5
 2003e8c:	1100c021 	add	w1, w1, #0x30
 2003e90:	390010a1 	strb	w1, [x5, #4]
 2003e94:	17ffffdc 	b	2003e04 <put_dec_trunc+0x5c>

0000000002003e98 <put_dec>:
 2003e98:	f81f0ffe 	str	x30, [sp, #-16]!
 2003e9c:	d290d3e2 	mov	x2, #0x869f                	// #34463
 2003ea0:	f2a00022 	movk	x2, #0x1, lsl #16
 2003ea4:	eb02003f 	cmp	x1, x2
 2003ea8:	540007c9 	b.ls	2003fa0 <put_dec+0x108>  // b.plast
 2003eac:	d28f086a 	mov	x10, #0x7843                	// #30787
 2003eb0:	f2ae368a 	movk	x10, #0x71b4, lsl #16
 2003eb4:	f2cb588a 	movk	x10, #0x5ac4, lsl #32
 2003eb8:	f2e14f8a 	movk	x10, #0xa7c, lsl #48
 2003ebc:	d290d409 	mov	x9, #0x86a0                	// #34464
 2003ec0:	f2a00029 	movk	x9, #0x1, lsl #16
 2003ec4:	528019a6 	mov	w6, #0xcd                  	// #205
 2003ec8:	528001a8 	mov	w8, #0xd                   	// #13
 2003ecc:	d29c7fe7 	mov	x7, #0xe3ff                	// #58367
 2003ed0:	f2aa8167 	movk	x7, #0x540b, lsl #16
 2003ed4:	f2c00047 	movk	x7, #0x2, lsl #32
 2003ed8:	d345fc22 	lsr	x2, x1, #5
 2003edc:	9bca7c42 	umulh	x2, x2, x10
 2003ee0:	d347fc42 	lsr	x2, x2, #7
 2003ee4:	9b098445 	msub	x5, x2, x9, x1
 2003ee8:	aa0103eb 	mov	x11, x1
 2003eec:	aa0203e1 	mov	x1, x2
 2003ef0:	53041cad 	ubfx	w13, w5, #4, #4
 2003ef4:	53082ca4 	ubfx	w4, w5, #8, #4
 2003ef8:	530c7ca3 	lsr	w3, w5, #12
 2003efc:	0b0401a2 	add	w2, w13, w4
 2003f00:	0b030042 	add	w2, w2, w3
 2003f04:	0b020442 	add	w2, w2, w2, lsl #1
 2003f08:	12000ca5 	and	w5, w5, #0xf
 2003f0c:	0b0204a2 	add	w2, w5, w2, lsl #1
 2003f10:	1b067c45 	mul	w5, w2, w6
 2003f14:	530b7ca5 	lsr	w5, w5, #11
 2003f18:	0b0508ac 	add	w12, w5, w5, lsl #2
 2003f1c:	4b0c0442 	sub	w2, w2, w12, lsl #1
 2003f20:	1100c042 	add	w2, w2, #0x30
 2003f24:	39000002 	strb	w2, [x0]
 2003f28:	0b030c62 	add	w2, w3, w3, lsl #3
 2003f2c:	0b0d004c 	add	w12, w2, w13
 2003f30:	0b040882 	add	w2, w4, w4, lsl #2
 2003f34:	0b050042 	add	w2, w2, w5
 2003f38:	0b0c0042 	add	w2, w2, w12
 2003f3c:	1b067c45 	mul	w5, w2, w6
 2003f40:	530b7ca5 	lsr	w5, w5, #11
 2003f44:	0b0508ac 	add	w12, w5, w5, lsl #2
 2003f48:	4b0c0442 	sub	w2, w2, w12, lsl #1
 2003f4c:	1100c042 	add	w2, w2, #0x30
 2003f50:	39000402 	strb	w2, [x0, #1]
 2003f54:	0b0404a4 	add	w4, w5, w4, lsl #1
 2003f58:	1b087c82 	mul	w2, w4, w8
 2003f5c:	53077c42 	lsr	w2, w2, #7
 2003f60:	0b020845 	add	w5, w2, w2, lsl #2
 2003f64:	4b050484 	sub	w4, w4, w5, lsl #1
 2003f68:	1100c084 	add	w4, w4, #0x30
 2003f6c:	39000804 	strb	w4, [x0, #2]
 2003f70:	0b030843 	add	w3, w2, w3, lsl #2
 2003f74:	1b067c62 	mul	w2, w3, w6
 2003f78:	530b7c42 	lsr	w2, w2, #11
 2003f7c:	0b020844 	add	w4, w2, w2, lsl #2
 2003f80:	4b040463 	sub	w3, w3, w4, lsl #1
 2003f84:	1100c063 	add	w3, w3, #0x30
 2003f88:	39000c03 	strb	w3, [x0, #3]
 2003f8c:	91001400 	add	x0, x0, #0x5
 2003f90:	1100c042 	add	w2, w2, #0x30
 2003f94:	381ff002 	sturb	w2, [x0, #-1]
 2003f98:	eb07017f 	cmp	x11, x7
 2003f9c:	54fff9e8 	b.hi	2003ed8 <put_dec+0x40>  // b.pmore
 2003fa0:	97ffff82 	bl	2003da8 <put_dec_trunc>
 2003fa4:	f84107fe 	ldr	x30, [sp], #16
 2003fa8:	d65f03c0 	ret

0000000002003fac <number>:
 2003fac:	a9b553f3 	stp	x19, x20, [sp, #-176]!
 2003fb0:	a9015bf5 	stp	x21, x22, [sp, #16]
 2003fb4:	a90263f7 	stp	x23, x24, [sp, #32]
 2003fb8:	a9036bf9 	stp	x25, x26, [sp, #48]
 2003fbc:	a90473fb 	stp	x27, x28, [sp, #64]
 2003fc0:	f9002bfe 	str	x30, [sp, #80]
 2003fc4:	aa0003f3 	mov	x19, x0
 2003fc8:	aa0103f4 	mov	x20, x1
 2003fcc:	2a0303f7 	mov	w23, w3
 2003fd0:	2a0403f5 	mov	w21, w4
 2003fd4:	2a0503fb 	mov	w27, w5
 2003fd8:	2a0603f6 	mov	w22, w6
 2003fdc:	d3461ac0 	ubfx	x0, x22, #6, #1
 2003fe0:	7100287f 	cmp	w3, #0xa
 2003fe4:	1a9f07f8 	cset	w24, ne  // ne = any
 2003fe8:	0a000318 	and	w24, w24, w0
 2003fec:	121b00d9 	and	w25, w6, #0x20
 2003ff0:	121f78c0 	and	w0, w6, #0xfffffffe
 2003ff4:	f27c02df 	tst	x22, #0x10
 2003ff8:	1a861016 	csel	w22, w0, w6, ne  // ne = any
 2003ffc:	36080236 	tbz	w22, #1, 2004040 <number+0x94>
 2004000:	b7f800a2 	tbnz	x2, #63, 2004014 <number+0x68>
 2004004:	36100156 	tbz	w22, #2, 200402c <number+0x80>
 2004008:	51000495 	sub	w21, w4, #0x1
 200400c:	5280057a 	mov	w26, #0x2b                  	// #43
 2004010:	1400000d 	b	2004044 <number+0x98>
 2004014:	cb0203e2 	neg	x2, x2
 2004018:	51000495 	sub	w21, w4, #0x1
 200401c:	528005ba 	mov	w26, #0x2d                  	// #45
 2004020:	340006d8 	cbz	w24, 20040f8 <number+0x14c>
 2004024:	528005ba 	mov	w26, #0x2d                  	// #45
 2004028:	14000008 	b	2004048 <number+0x9c>
 200402c:	5280001a 	mov	w26, #0x0                   	// #0
 2004030:	361800b6 	tbz	w22, #3, 2004044 <number+0x98>
 2004034:	51000495 	sub	w21, w4, #0x1
 2004038:	5280041a 	mov	w26, #0x20                  	// #32
 200403c:	14000002 	b	2004044 <number+0x98>
 2004040:	5280001a 	mov	w26, #0x0                   	// #0
 2004044:	34000378 	cbz	w24, 20040b0 <number+0x104>
 2004048:	710042ff 	cmp	w23, #0x10
 200404c:	54000280 	b.eq	200409c <number+0xf0>  // b.none
 2004050:	510006b5 	sub	w21, w21, #0x1
 2004054:	b4000302 	cbz	x2, 20040b4 <number+0x108>
 2004058:	510006e6 	sub	w6, w23, #0x1
 200405c:	52800065 	mov	w5, #0x3                   	// #3
 2004060:	d2800020 	mov	x0, #0x1                   	// #1
 2004064:	b0000004 	adrp	x4, 2005000 <vscnprintf+0x18>
 2004068:	9117a084 	add	x4, x4, #0x5e8
 200406c:	2a0003e7 	mov	w7, w0
 2004070:	9101bbe1 	add	x1, sp, #0x6e
 2004074:	8b010003 	add	x3, x0, x1
 2004078:	12001c41 	and	w1, w2, #0xff
 200407c:	0a060021 	and	w1, w1, w6
 2004080:	3861c881 	ldrb	w1, [x4, w1, sxtw]
 2004084:	2a010321 	orr	w1, w25, w1
 2004088:	381ff061 	sturb	w1, [x3, #-1]
 200408c:	9ac52442 	lsr	x2, x2, x5
 2004090:	91000400 	add	x0, x0, #0x1
 2004094:	b5fffec2 	cbnz	x2, 200406c <number+0xc0>
 2004098:	1400000a 	b	20040c0 <number+0x114>
 200409c:	51000ab5 	sub	w21, w21, #0x2
 20040a0:	b40000a2 	cbz	x2, 20040b4 <number+0x108>
 20040a4:	510006e6 	sub	w6, w23, #0x1
 20040a8:	52800085 	mov	w5, #0x4                   	// #4
 20040ac:	17ffffed 	b	2004060 <number+0xb4>
 20040b0:	b5000242 	cbnz	x2, 20040f8 <number+0x14c>
 20040b4:	52800600 	mov	w0, #0x30                  	// #48
 20040b8:	3901bbe0 	strb	w0, [sp, #110]
 20040bc:	52800027 	mov	w7, #0x1                   	// #1
 20040c0:	6b1b00ff 	cmp	w7, w27
 20040c4:	1a9ba0fb 	csel	w27, w7, w27, ge  // ge = tcont
 20040c8:	4b1b02a1 	sub	w1, w21, w27
 20040cc:	52800220 	mov	w0, #0x11                  	// #17
 20040d0:	6a0002df 	tst	w22, w0
 20040d4:	54000401 	b.ne	2004154 <number+0x1a8>  // b.any
 20040d8:	71000420 	subs	w0, w1, #0x1
 20040dc:	54000704 	b.mi	20041bc <number+0x210>  // b.first
 20040e0:	2a0003e3 	mov	w3, w0
 20040e4:	51000420 	sub	w0, w1, #0x1
 20040e8:	91000400 	add	x0, x0, #0x1
 20040ec:	8b000260 	add	x0, x19, x0
 20040f0:	52800402 	mov	w2, #0x20                  	// #32
 20040f4:	14000011 	b	2004138 <number+0x18c>
 20040f8:	71002aff 	cmp	w23, #0xa
 20040fc:	540000c0 	b.eq	2004114 <number+0x168>  // b.none
 2004100:	510006e6 	sub	w6, w23, #0x1
 2004104:	710042ff 	cmp	w23, #0x10
 2004108:	1a9f17e5 	cset	w5, eq  // eq = none
 200410c:	11000ca5 	add	w5, w5, #0x3
 2004110:	17ffffd4 	b	2004060 <number+0xb4>
 2004114:	9101bbfc 	add	x28, sp, #0x6e
 2004118:	aa0203e1 	mov	x1, x2
 200411c:	aa1c03e0 	mov	x0, x28
 2004120:	97ffff5e 	bl	2003e98 <put_dec>
 2004124:	4b1c0007 	sub	w7, w0, w28
 2004128:	17ffffe6 	b	20040c0 <number+0x114>
 200412c:	91000673 	add	x19, x19, #0x1
 2004130:	eb00027f 	cmp	x19, x0
 2004134:	540000a0 	b.eq	2004148 <number+0x19c>  // b.none
 2004138:	eb13029f 	cmp	x20, x19
 200413c:	54ffff89 	b.ls	200412c <number+0x180>  // b.plast
 2004140:	39000262 	strb	w2, [x19]
 2004144:	17fffffa 	b	200412c <number+0x180>
 2004148:	51000821 	sub	w1, w1, #0x2
 200414c:	4b030021 	sub	w1, w1, w3
 2004150:	aa0003f3 	mov	x19, x0
 2004154:	340000ba 	cbz	w26, 2004168 <number+0x1bc>
 2004158:	eb14027f 	cmp	x19, x20
 200415c:	54000042 	b.cs	2004164 <number+0x1b8>  // b.hs, b.nlast
 2004160:	3900027a 	strb	w26, [x19]
 2004164:	91000673 	add	x19, x19, #0x1
 2004168:	34000138 	cbz	w24, 200418c <number+0x1e0>
 200416c:	eb14027f 	cmp	x19, x20
 2004170:	54000062 	b.cs	200417c <number+0x1d0>  // b.hs, b.nlast
 2004174:	52800600 	mov	w0, #0x30                  	// #48
 2004178:	39000260 	strb	w0, [x19]
 200417c:	91000660 	add	x0, x19, #0x1
 2004180:	710042ff 	cmp	w23, #0x10
 2004184:	54000200 	b.eq	20041c4 <number+0x218>  // b.none
 2004188:	aa0003f3 	mov	x19, x0
 200418c:	372003f6 	tbnz	w22, #4, 2004208 <number+0x25c>
 2004190:	f24002df 	tst	x22, #0x1
 2004194:	52800602 	mov	w2, #0x30                  	// #48
 2004198:	52800400 	mov	w0, #0x20                  	// #32
 200419c:	1a801042 	csel	w2, w2, w0, ne  // ne = any
 20041a0:	71000420 	subs	w0, w1, #0x1
 20041a4:	54000604 	b.mi	2004264 <number+0x2b8>  // b.first
 20041a8:	2a0003e3 	mov	w3, w0
 20041ac:	51000420 	sub	w0, w1, #0x1
 20041b0:	91000400 	add	x0, x0, #0x1
 20041b4:	8b000260 	add	x0, x19, x0
 20041b8:	1400000d 	b	20041ec <number+0x240>
 20041bc:	2a0003e1 	mov	w1, w0
 20041c0:	17ffffe5 	b	2004154 <number+0x1a8>
 20041c4:	eb00029f 	cmp	x20, x0
 20041c8:	54000089 	b.ls	20041d8 <number+0x22c>  // b.plast
 20041cc:	52800b00 	mov	w0, #0x58                  	// #88
 20041d0:	2a000339 	orr	w25, w25, w0
 20041d4:	39000679 	strb	w25, [x19, #1]
 20041d8:	91000a73 	add	x19, x19, #0x2
 20041dc:	17ffffec 	b	200418c <number+0x1e0>
 20041e0:	91000673 	add	x19, x19, #0x1
 20041e4:	eb00027f 	cmp	x19, x0
 20041e8:	540000a0 	b.eq	20041fc <number+0x250>  // b.none
 20041ec:	eb13029f 	cmp	x20, x19
 20041f0:	54ffff89 	b.ls	20041e0 <number+0x234>  // b.plast
 20041f4:	39000262 	strb	w2, [x19]
 20041f8:	17fffffa 	b	20041e0 <number+0x234>
 20041fc:	51000821 	sub	w1, w1, #0x2
 2004200:	4b030021 	sub	w1, w1, w3
 2004204:	aa0003f3 	mov	x19, x0
 2004208:	51000760 	sub	w0, w27, #0x1
 200420c:	aa1303e2 	mov	x2, x19
 2004210:	52800603 	mov	w3, #0x30                  	// #48
 2004214:	2a0003fb 	mov	w27, w0
 2004218:	6b0000ff 	cmp	w7, w0
 200421c:	540001cd 	b.le	2004254 <number+0x2a8>
 2004220:	710004e0 	subs	w0, w7, #0x1
 2004224:	54000364 	b.mi	2004290 <number+0x2e4>  // b.first
 2004228:	9101bbe3 	add	x3, sp, #0x6e
 200422c:	8b20c060 	add	x0, x3, w0, sxtw
 2004230:	510004e3 	sub	w3, w7, #0x1
 2004234:	91000463 	add	x3, x3, #0x1
 2004238:	8b030043 	add	x3, x2, x3
 200423c:	14000010 	b	200427c <number+0x2d0>
 2004240:	91000442 	add	x2, x2, #0x1
 2004244:	4b020260 	sub	w0, w19, w2
 2004248:	0b000360 	add	w0, w27, w0
 200424c:	6b0000ff 	cmp	w7, w0
 2004250:	54fffe8c 	b.gt	2004220 <number+0x274>
 2004254:	eb02029f 	cmp	x20, x2
 2004258:	54ffff49 	b.ls	2004240 <number+0x294>  // b.plast
 200425c:	39000043 	strb	w3, [x2]
 2004260:	17fffff8 	b	2004240 <number+0x294>
 2004264:	2a0003e1 	mov	w1, w0
 2004268:	17ffffe8 	b	2004208 <number+0x25c>
 200426c:	91000442 	add	x2, x2, #0x1
 2004270:	d1000400 	sub	x0, x0, #0x1
 2004274:	eb03005f 	cmp	x2, x3
 2004278:	540000e0 	b.eq	2004294 <number+0x2e8>  // b.none
 200427c:	eb02029f 	cmp	x20, x2
 2004280:	54ffff69 	b.ls	200426c <number+0x2c0>  // b.plast
 2004284:	39400004 	ldrb	w4, [x0]
 2004288:	39000044 	strb	w4, [x2]
 200428c:	17fffff8 	b	200426c <number+0x2c0>
 2004290:	aa0203e3 	mov	x3, x2
 2004294:	7100043f 	cmp	w1, #0x1
 2004298:	540001a4 	b.mi	20042cc <number+0x320>  // b.first
 200429c:	51000420 	sub	w0, w1, #0x1
 20042a0:	91000400 	add	x0, x0, #0x1
 20042a4:	8b000060 	add	x0, x3, x0
 20042a8:	52800401 	mov	w1, #0x20                  	// #32
 20042ac:	14000004 	b	20042bc <number+0x310>
 20042b0:	91000463 	add	x3, x3, #0x1
 20042b4:	eb00007f 	cmp	x3, x0
 20042b8:	540000c0 	b.eq	20042d0 <number+0x324>  // b.none
 20042bc:	eb03029f 	cmp	x20, x3
 20042c0:	54ffff89 	b.ls	20042b0 <number+0x304>  // b.plast
 20042c4:	39000061 	strb	w1, [x3]
 20042c8:	17fffffa 	b	20042b0 <number+0x304>
 20042cc:	aa0303e0 	mov	x0, x3
 20042d0:	a9415bf5 	ldp	x21, x22, [sp, #16]
 20042d4:	a94263f7 	ldp	x23, x24, [sp, #32]
 20042d8:	a9436bf9 	ldp	x25, x26, [sp, #48]
 20042dc:	a94473fb 	ldp	x27, x28, [sp, #64]
 20042e0:	f9402bfe 	ldr	x30, [sp, #80]
 20042e4:	a8cb53f3 	ldp	x19, x20, [sp], #176
 20042e8:	d65f03c0 	ret

00000000020042ec <string>:
 20042ec:	a9bd53f3 	stp	x19, x20, [sp, #-48]!
 20042f0:	a9015bf5 	stp	x21, x22, [sp, #16]
 20042f4:	a9027bf7 	stp	x23, x30, [sp, #32]
 20042f8:	aa0003f3 	mov	x19, x0
 20042fc:	aa0103f5 	mov	x21, x1
 2004300:	2a0303f6 	mov	w22, w3
 2004304:	2a0503f7 	mov	w23, w5
 2004308:	d0000000 	adrp	x0, 2006000 <names.0+0x2c0>
 200430c:	9137a000 	add	x0, x0, #0xde8
 2004310:	f100005f 	cmp	x2, #0x0
 2004314:	9a820014 	csel	x20, x0, x2, eq  // eq = none
 2004318:	93407c81 	sxtw	x1, w4
 200431c:	aa1403e0 	mov	x0, x20
 2004320:	97fffdce 	bl	2003a58 <strnlen>
 2004324:	aa0003e1 	mov	x1, x0
 2004328:	37200297 	tbnz	w23, #4, 2004378 <string+0x8c>
 200432c:	510006c0 	sub	w0, w22, #0x1
 2004330:	6b16003f 	cmp	w1, w22
 2004334:	540002ea 	b.ge	2004390 <string+0xa4>  // b.tcont
 2004338:	4b010004 	sub	w4, w0, w1
 200433c:	4b010000 	sub	w0, w0, w1
 2004340:	91000400 	add	x0, x0, #0x1
 2004344:	8b000260 	add	x0, x19, x0
 2004348:	52800402 	mov	w2, #0x20                  	// #32
 200434c:	14000004 	b	200435c <string+0x70>
 2004350:	91000673 	add	x19, x19, #0x1
 2004354:	eb00027f 	cmp	x19, x0
 2004358:	540000a0 	b.eq	200436c <string+0x80>  // b.none
 200435c:	eb1302bf 	cmp	x21, x19
 2004360:	54ffff89 	b.ls	2004350 <string+0x64>  // b.plast
 2004364:	39000262 	strb	w2, [x19]
 2004368:	17fffffa 	b	2004350 <string+0x64>
 200436c:	51000ac3 	sub	w3, w22, #0x2
 2004370:	4b040076 	sub	w22, w3, w4
 2004374:	aa0003f3 	mov	x19, x0
 2004378:	7100003f 	cmp	w1, #0x0
 200437c:	5400022d 	b.le	20043c0 <string+0xd4>
 2004380:	51000424 	sub	w4, w1, #0x1
 2004384:	91000484 	add	x4, x4, #0x1
 2004388:	8b040260 	add	x0, x19, x4
 200438c:	14000006 	b	20043a4 <string+0xb8>
 2004390:	2a0003f6 	mov	w22, w0
 2004394:	17fffff9 	b	2004378 <string+0x8c>
 2004398:	91000673 	add	x19, x19, #0x1
 200439c:	eb00027f 	cmp	x19, x0
 20043a0:	54000120 	b.eq	20043c4 <string+0xd8>  // b.none
 20043a4:	eb1302bf 	cmp	x21, x19
 20043a8:	54ffff89 	b.ls	2004398 <string+0xac>  // b.plast
 20043ac:	aa1403e2 	mov	x2, x20
 20043b0:	38401443 	ldrb	w3, [x2], #1
 20043b4:	39000263 	strb	w3, [x19]
 20043b8:	aa0203f4 	mov	x20, x2
 20043bc:	17fffff7 	b	2004398 <string+0xac>
 20043c0:	aa1303e0 	mov	x0, x19
 20043c4:	6b0102df 	cmp	w22, w1
 20043c8:	5400028d 	b.le	2004418 <string+0x12c>
 20043cc:	2a1603e5 	mov	w5, w22
 20043d0:	2a2103e3 	mvn	w3, w1
 20043d4:	0b160063 	add	w3, w3, w22
 20043d8:	91000463 	add	x3, x3, #0x1
 20043dc:	8b030003 	add	x3, x0, x3
 20043e0:	aa0003e2 	mov	x2, x0
 20043e4:	52800404 	mov	w4, #0x20                  	// #32
 20043e8:	14000004 	b	20043f8 <string+0x10c>
 20043ec:	91000442 	add	x2, x2, #0x1
 20043f0:	eb03005f 	cmp	x2, x3
 20043f4:	540000a0 	b.eq	2004408 <string+0x11c>  // b.none
 20043f8:	eb0202bf 	cmp	x21, x2
 20043fc:	54ffff89 	b.ls	20043ec <string+0x100>  // b.plast
 2004400:	39000044 	strb	w4, [x2]
 2004404:	17fffffa 	b	20043ec <string+0x100>
 2004408:	2a2103e1 	mvn	w1, w1
 200440c:	0b050021 	add	w1, w1, w5
 2004410:	91000421 	add	x1, x1, #0x1
 2004414:	8b010000 	add	x0, x0, x1
 2004418:	a9415bf5 	ldp	x21, x22, [sp, #16]
 200441c:	a9427bf7 	ldp	x23, x30, [sp, #32]
 2004420:	a8c353f3 	ldp	x19, x20, [sp], #48
 2004424:	d65f03c0 	ret

0000000002004428 <vsnprintf_internal>:
 2004428:	a9b453f3 	stp	x19, x20, [sp, #-192]!
 200442c:	a9015bf5 	stp	x21, x22, [sp, #16]
 2004430:	a90263f7 	stp	x23, x24, [sp, #32]
 2004434:	a9036bf9 	stp	x25, x26, [sp, #48]
 2004438:	f9002bfe 	str	x30, [sp, #80]
 200443c:	f90033e0 	str	x0, [sp, #96]
 2004440:	f90037e1 	str	x1, [sp, #104]
 2004444:	f9400079 	ldr	x25, [x3]
 2004448:	f9400464 	ldr	x4, [x3, #8]
 200444c:	f9003be4 	str	x4, [sp, #112]
 2004450:	b940187a 	ldr	w26, [x3, #24]
 2004454:	ab010018 	adds	x24, x0, x1
 2004458:	54000083 	b.cc	2004468 <vsnprintf_internal+0x40>  // b.lo, b.ul, b.last
 200445c:	aa2003e0 	mvn	x0, x0
 2004460:	f90037e0 	str	x0, [sp, #104]
 2004464:	92800018 	mov	x24, #0xffffffffffffffff    	// #-1
 2004468:	39400040 	ldrb	w0, [x2]
 200446c:	340049a0 	cbz	w0, 2004da0 <vsnprintf_internal+0x978>
 2004470:	a90473fb 	stp	x27, x28, [sp, #64]
 2004474:	f94033f5 	ldr	x21, [sp, #96]
 2004478:	b000001b 	adrp	x27, 2005000 <vscnprintf+0x18>
 200447c:	9109037b 	add	x27, x27, #0x240
 2004480:	d288003c 	mov	x28, #0x4001                	// #16385
 2004484:	f2a2001c 	movk	x28, #0x1000, lsl #16
 2004488:	f2c8203c 	movk	x28, #0x4101, lsl #32
 200448c:	14000006 	b	20044a4 <vsnprintf_internal+0x7c>
 2004490:	910006b5 	add	x21, x21, #0x1
 2004494:	aa0203f4 	mov	x20, x2
 2004498:	91000682 	add	x2, x20, #0x1
 200449c:	39400680 	ldrb	w0, [x20, #1]
 20044a0:	340045c0 	cbz	w0, 2004d58 <vsnprintf_internal+0x930>
 20044a4:	7100941f 	cmp	w0, #0x25
 20044a8:	540000a0 	b.eq	20044bc <vsnprintf_internal+0x94>  // b.none
 20044ac:	eb15031f 	cmp	x24, x21
 20044b0:	54ffff09 	b.ls	2004490 <vsnprintf_internal+0x68>  // b.plast
 20044b4:	390002a0 	strb	w0, [x21]
 20044b8:	17fffff6 	b	2004490 <vsnprintf_internal+0x68>
 20044bc:	52800016 	mov	w22, #0x0                   	// #0
 20044c0:	14000009 	b	20044e4 <vsnprintf_internal+0xbc>
 20044c4:	7100801f 	cmp	w0, #0x20
 20044c8:	54000280 	b.eq	2004518 <vsnprintf_internal+0xf0>  // b.none
 20044cc:	71008c1f 	cmp	w0, #0x23
 20044d0:	54005341 	b.ne	2004f38 <vsnprintf_internal+0xb10>  // b.any
 20044d4:	321a02d6 	orr	w22, w22, #0x40
 20044d8:	14000002 	b	20044e0 <vsnprintf_internal+0xb8>
 20044dc:	321c02d6 	orr	w22, w22, #0x10
 20044e0:	aa0103e2 	mov	x2, x1
 20044e4:	91000441 	add	x1, x2, #0x1
 20044e8:	39400440 	ldrb	w0, [x2, #1]
 20044ec:	7100ac1f 	cmp	w0, #0x2b
 20044f0:	54000100 	b.eq	2004510 <vsnprintf_internal+0xe8>  // b.none
 20044f4:	54fffe89 	b.ls	20044c4 <vsnprintf_internal+0x9c>  // b.plast
 20044f8:	7100b41f 	cmp	w0, #0x2d
 20044fc:	54ffff00 	b.eq	20044dc <vsnprintf_internal+0xb4>  // b.none
 2004500:	7100c01f 	cmp	w0, #0x30
 2004504:	54005661 	b.ne	2004fd0 <vsnprintf_internal+0xba8>  // b.any
 2004508:	320002d6 	orr	w22, w22, #0x1
 200450c:	17fffff5 	b	20044e0 <vsnprintf_internal+0xb8>
 2004510:	321e02d6 	orr	w22, w22, #0x4
 2004514:	17fffff3 	b	20044e0 <vsnprintf_internal+0xb8>
 2004518:	321d02d6 	orr	w22, w22, #0x8
 200451c:	17fffff1 	b	20044e0 <vsnprintf_internal+0xb8>
 2004520:	52800013 	mov	w19, #0x0                   	// #0
 2004524:	0b130a73 	add	w19, w19, w19, lsl #2
 2004528:	0b130413 	add	w19, w0, w19, lsl #1
 200452c:	5100c273 	sub	w19, w19, #0x30
 2004530:	38401c20 	ldrb	w0, [x1, #1]!
 2004534:	5100c002 	sub	w2, w0, #0x30
 2004538:	12001c42 	and	w2, w2, #0xff
 200453c:	7100245f 	cmp	w2, #0x9
 2004540:	54ffff29 	b.ls	2004524 <vsnprintf_internal+0xfc>  // b.plast
 2004544:	14000280 	b	2004f44 <vsnprintf_internal+0xb1c>
 2004548:	91000841 	add	x1, x2, #0x2
 200454c:	37f8013a 	tbnz	w26, #31, 2004570 <vsnprintf_internal+0x148>
 2004550:	91002f22 	add	x2, x25, #0xb
 2004554:	aa1903e0 	mov	x0, x25
 2004558:	927df059 	and	x25, x2, #0xfffffffffffffff8
 200455c:	b9400013 	ldr	w19, [x0]
 2004560:	36f84f33 	tbz	w19, #31, 2004f44 <vsnprintf_internal+0xb1c>
 2004564:	4b1303f3 	neg	w19, w19
 2004568:	321c02d6 	orr	w22, w22, #0x10
 200456c:	14000276 	b	2004f44 <vsnprintf_internal+0xb1c>
 2004570:	11002342 	add	w2, w26, #0x8
 2004574:	7100005f 	cmp	w2, #0x0
 2004578:	540000cd 	b.le	2004590 <vsnprintf_internal+0x168>
 200457c:	91002f23 	add	x3, x25, #0xb
 2004580:	2a0203fa 	mov	w26, w2
 2004584:	aa1903e0 	mov	x0, x25
 2004588:	927df079 	and	x25, x3, #0xfffffffffffffff8
 200458c:	17fffff4 	b	200455c <vsnprintf_internal+0x134>
 2004590:	f9403be0 	ldr	x0, [sp, #112]
 2004594:	8b3ac000 	add	x0, x0, w26, sxtw
 2004598:	2a0203fa 	mov	w26, w2
 200459c:	17fffff0 	b	200455c <vsnprintf_internal+0x134>
 20045a0:	91000423 	add	x3, x1, #0x1
 20045a4:	39400422 	ldrb	w2, [x1, #1]
 20045a8:	5100c040 	sub	w0, w2, #0x30
 20045ac:	12001c00 	and	w0, w0, #0xff
 20045b0:	7100241f 	cmp	w0, #0x9
 20045b4:	540000c9 	b.ls	20045cc <vsnprintf_internal+0x1a4>  // b.plast
 20045b8:	7100a85f 	cmp	w2, #0x2a
 20045bc:	54000220 	b.eq	2004600 <vsnprintf_internal+0x1d8>  // b.none
 20045c0:	aa0303e1 	mov	x1, x3
 20045c4:	52800017 	mov	w23, #0x0                   	// #0
 20045c8:	14000263 	b	2004f54 <vsnprintf_internal+0xb2c>
 20045cc:	52800017 	mov	w23, #0x0                   	// #0
 20045d0:	0b170af7 	add	w23, w23, w23, lsl #2
 20045d4:	0b170457 	add	w23, w2, w23, lsl #1
 20045d8:	5100c2f7 	sub	w23, w23, #0x30
 20045dc:	38401c62 	ldrb	w2, [x3, #1]!
 20045e0:	5100c040 	sub	w0, w2, #0x30
 20045e4:	12001c00 	and	w0, w0, #0xff
 20045e8:	7100241f 	cmp	w0, #0x9
 20045ec:	54ffff29 	b.ls	20045d0 <vsnprintf_internal+0x1a8>  // b.plast
 20045f0:	710002ff 	cmp	w23, #0x0
 20045f4:	1a9fa2f7 	csel	w23, w23, wzr, ge  // ge = tcont
 20045f8:	aa0303e1 	mov	x1, x3
 20045fc:	14000256 	b	2004f54 <vsnprintf_internal+0xb2c>
 2004600:	91000823 	add	x3, x1, #0x2
 2004604:	37f800da 	tbnz	w26, #31, 200461c <vsnprintf_internal+0x1f4>
 2004608:	91002f21 	add	x1, x25, #0xb
 200460c:	aa1903e0 	mov	x0, x25
 2004610:	927df039 	and	x25, x1, #0xfffffffffffffff8
 2004614:	b9400017 	ldr	w23, [x0]
 2004618:	17fffff6 	b	20045f0 <vsnprintf_internal+0x1c8>
 200461c:	11002341 	add	w1, w26, #0x8
 2004620:	7100003f 	cmp	w1, #0x0
 2004624:	540000cd 	b.le	200463c <vsnprintf_internal+0x214>
 2004628:	91002f22 	add	x2, x25, #0xb
 200462c:	2a0103fa 	mov	w26, w1
 2004630:	aa1903e0 	mov	x0, x25
 2004634:	927df059 	and	x25, x2, #0xfffffffffffffff8
 2004638:	17fffff7 	b	2004614 <vsnprintf_internal+0x1ec>
 200463c:	f9403be0 	ldr	x0, [sp, #112]
 2004640:	8b3ac000 	add	x0, x0, w26, sxtw
 2004644:	2a0103fa 	mov	w26, w1
 2004648:	17fffff3 	b	2004614 <vsnprintf_internal+0x1ec>
 200464c:	39400420 	ldrb	w0, [x1, #1]
 2004650:	7101b01f 	cmp	w0, #0x6c
 2004654:	54000180 	b.eq	2004684 <vsnprintf_internal+0x25c>  // b.none
 2004658:	7101b81f 	cmp	w0, #0x6e
 200465c:	54002180 	b.eq	2004a8c <vsnprintf_internal+0x664>  // b.none
 2004660:	54003a49 	b.ls	2004da8 <vsnprintf_internal+0x980>  // b.plast
 2004664:	7101cc1f 	cmp	w0, #0x73
 2004668:	540043c0 	b.eq	2004ee0 <vsnprintf_internal+0xab8>  // b.none
 200466c:	54003ca9 	b.ls	2004e00 <vsnprintf_internal+0x9d8>  // b.plast
 2004670:	7101d41f 	cmp	w0, #0x75
 2004674:	54002ac0 	b.eq	2004bcc <vsnprintf_internal+0x7a4>  // b.none
 2004678:	7101e01f 	cmp	w0, #0x78
 200467c:	54004240 	b.eq	2004ec4 <vsnprintf_internal+0xa9c>  // b.none
 2004680:	140001d6 	b	2004dd8 <vsnprintf_internal+0x9b0>
 2004684:	91000834 	add	x20, x1, #0x2
 2004688:	52800984 	mov	w4, #0x4c                  	// #76
 200468c:	1400023d 	b	2004f80 <vsnprintf_internal+0xb58>
 2004690:	121c02c3 	and	w3, w22, #0x10
 2004694:	36200276 	tbz	w22, #4, 20046e0 <vsnprintf_internal+0x2b8>
 2004698:	eb1802bf 	cmp	x21, x24
 200469c:	540000e2 	b.cs	20046b8 <vsnprintf_internal+0x290>  // b.hs, b.nlast
 20046a0:	37f804fa 	tbnz	w26, #31, 200473c <vsnprintf_internal+0x314>
 20046a4:	91002f21 	add	x1, x25, #0xb
 20046a8:	aa1903e0 	mov	x0, x25
 20046ac:	927df039 	and	x25, x1, #0xfffffffffffffff8
 20046b0:	b9400000 	ldr	w0, [x0]
 20046b4:	390002a0 	strb	w0, [x21]
 20046b8:	910006a2 	add	x2, x21, #0x1
 20046bc:	51000660 	sub	w0, w19, #0x1
 20046c0:	7100001f 	cmp	w0, #0x0
 20046c4:	5400346d 	b.le	2004d50 <vsnprintf_internal+0x928>
 20046c8:	51000a60 	sub	w0, w19, #0x2
 20046cc:	91000800 	add	x0, x0, #0x2
 20046d0:	8b0002b5 	add	x21, x21, x0
 20046d4:	aa0203e0 	mov	x0, x2
 20046d8:	52800401 	mov	w1, #0x20                  	// #32
 20046dc:	14000027 	b	2004778 <vsnprintf_internal+0x350>
 20046e0:	51000660 	sub	w0, w19, #0x1
 20046e4:	7100001f 	cmp	w0, #0x0
 20046e8:	5400026d 	b.le	2004734 <vsnprintf_internal+0x30c>
 20046ec:	51000a61 	sub	w1, w19, #0x2
 20046f0:	91000421 	add	x1, x1, #0x1
 20046f4:	8b0102a1 	add	x1, x21, x1
 20046f8:	aa1503e0 	mov	x0, x21
 20046fc:	52800402 	mov	w2, #0x20                  	// #32
 2004700:	14000004 	b	2004710 <vsnprintf_internal+0x2e8>
 2004704:	91000400 	add	x0, x0, #0x1
 2004708:	eb01001f 	cmp	x0, x1
 200470c:	540000a0 	b.eq	2004720 <vsnprintf_internal+0x2f8>  // b.none
 2004710:	eb00031f 	cmp	x24, x0
 2004714:	54ffff89 	b.ls	2004704 <vsnprintf_internal+0x2dc>  // b.plast
 2004718:	39000002 	strb	w2, [x0]
 200471c:	17fffffa 	b	2004704 <vsnprintf_internal+0x2dc>
 2004720:	51000a60 	sub	w0, w19, #0x2
 2004724:	91000400 	add	x0, x0, #0x1
 2004728:	8b0002b5 	add	x21, x21, x0
 200472c:	2a0303f3 	mov	w19, w3
 2004730:	17ffffda 	b	2004698 <vsnprintf_internal+0x270>
 2004734:	2a0003f3 	mov	w19, w0
 2004738:	17ffffd8 	b	2004698 <vsnprintf_internal+0x270>
 200473c:	11002341 	add	w1, w26, #0x8
 2004740:	7100003f 	cmp	w1, #0x0
 2004744:	540000cd 	b.le	200475c <vsnprintf_internal+0x334>
 2004748:	91002f22 	add	x2, x25, #0xb
 200474c:	2a0103fa 	mov	w26, w1
 2004750:	aa1903e0 	mov	x0, x25
 2004754:	927df059 	and	x25, x2, #0xfffffffffffffff8
 2004758:	17ffffd6 	b	20046b0 <vsnprintf_internal+0x288>
 200475c:	f9403be0 	ldr	x0, [sp, #112]
 2004760:	8b3ac000 	add	x0, x0, w26, sxtw
 2004764:	2a0103fa 	mov	w26, w1
 2004768:	17ffffd2 	b	20046b0 <vsnprintf_internal+0x288>
 200476c:	91000400 	add	x0, x0, #0x1
 2004770:	eb15001f 	cmp	x0, x21
 2004774:	540000a0 	b.eq	2004788 <vsnprintf_internal+0x360>  // b.none
 2004778:	eb00031f 	cmp	x24, x0
 200477c:	54ffff89 	b.ls	200476c <vsnprintf_internal+0x344>  // b.plast
 2004780:	39000001 	strb	w1, [x0]
 2004784:	17fffffa 	b	200476c <vsnprintf_internal+0x344>
 2004788:	51000a75 	sub	w21, w19, #0x2
 200478c:	910006b5 	add	x21, x21, #0x1
 2004790:	8b150055 	add	x21, x2, x21
 2004794:	17ffff41 	b	2004498 <vsnprintf_internal+0x70>
 2004798:	11002341 	add	w1, w26, #0x8
 200479c:	7100003f 	cmp	w1, #0x0
 20047a0:	540000cd 	b.le	20047b8 <vsnprintf_internal+0x390>
 20047a4:	91003f22 	add	x2, x25, #0xf
 20047a8:	2a0103fa 	mov	w26, w1
 20047ac:	aa1903e0 	mov	x0, x25
 20047b0:	927df059 	and	x25, x2, #0xfffffffffffffff8
 20047b4:	140001cf 	b	2004ef0 <vsnprintf_internal+0xac8>
 20047b8:	f9403be0 	ldr	x0, [sp, #112]
 20047bc:	8b3ac000 	add	x0, x0, w26, sxtw
 20047c0:	2a0103fa 	mov	w26, w1
 20047c4:	140001cb 	b	2004ef0 <vsnprintf_internal+0xac8>
 20047c8:	11002341 	add	w1, w26, #0x8
 20047cc:	7100003f 	cmp	w1, #0x0
 20047d0:	540000cd 	b.le	20047e8 <vsnprintf_internal+0x3c0>
 20047d4:	91003f22 	add	x2, x25, #0xf
 20047d8:	2a0103fa 	mov	w26, w1
 20047dc:	aa1903e0 	mov	x0, x25
 20047e0:	927df059 	and	x25, x2, #0xfffffffffffffff8
 20047e4:	1400018f 	b	2004e20 <vsnprintf_internal+0x9f8>
 20047e8:	f9403be0 	ldr	x0, [sp, #112]
 20047ec:	8b3ac000 	add	x0, x0, w26, sxtw
 20047f0:	2a0103fa 	mov	w26, w1
 20047f4:	1400018b 	b	2004e20 <vsnprintf_internal+0x9f8>
 20047f8:	7101a41f 	cmp	w0, #0x69
 20047fc:	540004e0 	b.eq	2004898 <vsnprintf_internal+0x470>  // b.none
 2004800:	7101b41f 	cmp	w0, #0x6d
 2004804:	54000581 	b.ne	20048b4 <vsnprintf_internal+0x48c>  // b.any
 2004808:	321a02d6 	orr	w22, w22, #0x40
 200480c:	14000191 	b	2004e50 <vsnprintf_internal+0xa28>
 2004810:	f9403fe0 	ldr	x0, [sp, #120]
 2004814:	f9400002 	ldr	x2, [x0]
 2004818:	52800c26 	mov	w6, #0x61                  	// #97
 200481c:	2a0602c6 	orr	w6, w22, w6
 2004820:	52800253 	mov	w19, #0x12                  	// #18
 2004824:	14000027 	b	20048c0 <vsnprintf_internal+0x498>
 2004828:	39000846 	strb	w6, [x2, #2]
 200482c:	91000c42 	add	x2, x2, #0x3
 2004830:	91000400 	add	x0, x0, #0x1
 2004834:	f100181f 	cmp	x0, #0x6
 2004838:	540001c0 	b.eq	2004870 <vsnprintf_internal+0x448>  // b.none
 200483c:	f9403fe1 	ldr	x1, [sp, #120]
 2004840:	38606821 	ldrb	w1, [x1, x0]
 2004844:	53047c24 	lsr	w4, w1, #4
 2004848:	3864c864 	ldrb	w4, [x3, w4, sxtw]
 200484c:	39000044 	strb	w4, [x2]
 2004850:	12000c21 	and	w1, w1, #0xf
 2004854:	3861c861 	ldrb	w1, [x3, w1, sxtw]
 2004858:	39000441 	strb	w1, [x2, #1]
 200485c:	710000bf 	cmp	w5, #0x0
 2004860:	7a450804 	ccmp	w0, #0x5, #0x4, eq  // eq = none
 2004864:	54fffe21 	b.ne	2004828 <vsnprintf_internal+0x400>  // b.any
 2004868:	91000842 	add	x2, x2, #0x2
 200486c:	17fffff1 	b	2004830 <vsnprintf_internal+0x408>
 2004870:	3900005f 	strb	wzr, [x2]
 2004874:	12197ac5 	and	w5, w22, #0xffffffbf
 2004878:	2a1703e4 	mov	w4, w23
 200487c:	2a1303e3 	mov	w3, w19
 2004880:	910263e2 	add	x2, sp, #0x98
 2004884:	aa1803e1 	mov	x1, x24
 2004888:	aa1503e0 	mov	x0, x21
 200488c:	97fffe98 	bl	20042ec <string>
 2004890:	aa0003f5 	mov	x21, x0
 2004894:	14000012 	b	20048dc <vsnprintf_internal+0x4b4>
 2004898:	321a02d6 	orr	w22, w22, #0x40
 200489c:	39400a80 	ldrb	w0, [x20, #2]
 20048a0:	7100d81f 	cmp	w0, #0x36
 20048a4:	54000340 	b.eq	200490c <vsnprintf_internal+0x4e4>  // b.none
 20048a8:	7100d01f 	cmp	w0, #0x34
 20048ac:	54000880 	b.eq	20049bc <vsnprintf_internal+0x594>  // b.none
 20048b0:	12197ad6 	and	w22, w22, #0xffffffbf
 20048b4:	321b02c6 	orr	w6, w22, #0x20
 20048b8:	3100067f 	cmn	w19, #0x1
 20048bc:	54000da0 	b.eq	2004a70 <vsnprintf_internal+0x648>  // b.none
 20048c0:	2a1703e5 	mov	w5, w23
 20048c4:	2a1303e4 	mov	w4, w19
 20048c8:	52800203 	mov	w3, #0x10                  	// #16
 20048cc:	aa1803e1 	mov	x1, x24
 20048d0:	aa1503e0 	mov	x0, x21
 20048d4:	97fffdb6 	bl	2003fac <number>
 20048d8:	aa0003f5 	mov	x21, x0
 20048dc:	b14006bf 	cmn	x21, #0x1, lsl #12
 20048e0:	54000d08 	b.hi	2004a80 <vsnprintf_internal+0x658>  // b.pmore
 20048e4:	39400680 	ldrb	w0, [x20, #1]
 20048e8:	3860cb60 	ldrb	w0, [x27, w0, sxtw]
 20048ec:	f240081f 	tst	x0, #0x7
 20048f0:	54ffdd40 	b.eq	2004498 <vsnprintf_internal+0x70>  // b.none
 20048f4:	91000694 	add	x20, x20, #0x1
 20048f8:	39400680 	ldrb	w0, [x20, #1]
 20048fc:	3860cb60 	ldrb	w0, [x27, w0, sxtw]
 2004900:	f240081f 	tst	x0, #0x7
 2004904:	54ffff81 	b.ne	20048f4 <vsnprintf_internal+0x4cc>  // b.any
 2004908:	17fffee4 	b	2004498 <vsnprintf_internal+0x70>
 200490c:	910263e0 	add	x0, sp, #0x98
 2004910:	52800004 	mov	w4, #0x0                   	// #0
 2004914:	b0000003 	adrp	x3, 2005000 <vscnprintf+0x18>
 2004918:	9132c063 	add	x3, x3, #0xcb0
 200491c:	121a02c6 	and	w6, w22, #0x40
 2004920:	52800747 	mov	w7, #0x3a                  	// #58
 2004924:	14000006 	b	200493c <vsnprintf_internal+0x514>
 2004928:	91001401 	add	x1, x0, #0x5
 200492c:	39001007 	strb	w7, [x0, #4]
 2004930:	11000484 	add	w4, w4, #0x1
 2004934:	91000842 	add	x2, x2, #0x2
 2004938:	aa0103e0 	mov	x0, x1
 200493c:	39400041 	ldrb	w1, [x2]
 2004940:	53047c25 	lsr	w5, w1, #4
 2004944:	3865c865 	ldrb	w5, [x3, w5, sxtw]
 2004948:	39000005 	strb	w5, [x0]
 200494c:	12000c21 	and	w1, w1, #0xf
 2004950:	3861c861 	ldrb	w1, [x3, w1, sxtw]
 2004954:	39000401 	strb	w1, [x0, #1]
 2004958:	39400441 	ldrb	w1, [x2, #1]
 200495c:	53047c25 	lsr	w5, w1, #4
 2004960:	3865c865 	ldrb	w5, [x3, w5, sxtw]
 2004964:	39000805 	strb	w5, [x0, #2]
 2004968:	12000c21 	and	w1, w1, #0xf
 200496c:	3861c861 	ldrb	w1, [x3, w1, sxtw]
 2004970:	39000c01 	strb	w1, [x0, #3]
 2004974:	710000df 	cmp	w6, #0x0
 2004978:	7a470884 	ccmp	w4, #0x7, #0x4, eq  // eq = none
 200497c:	54fffd61 	b.ne	2004928 <vsnprintf_internal+0x500>  // b.any
 2004980:	91001001 	add	x1, x0, #0x4
 2004984:	11000484 	add	w4, w4, #0x1
 2004988:	91000842 	add	x2, x2, #0x2
 200498c:	7100209f 	cmp	w4, #0x8
 2004990:	54fffd41 	b.ne	2004938 <vsnprintf_internal+0x510>  // b.any
 2004994:	3900101f 	strb	wzr, [x0, #4]
 2004998:	12197ac5 	and	w5, w22, #0xffffffbf
 200499c:	2a1703e4 	mov	w4, w23
 20049a0:	2a1303e3 	mov	w3, w19
 20049a4:	910263e2 	add	x2, sp, #0x98
 20049a8:	aa1803e1 	mov	x1, x24
 20049ac:	aa1503e0 	mov	x0, x21
 20049b0:	97fffe4f 	bl	20042ec <string>
 20049b4:	aa0003f5 	mov	x21, x0
 20049b8:	17ffffc9 	b	20048dc <vsnprintf_internal+0x4b4>
 20049bc:	f90043ff 	str	xzr, [sp, #128]
 20049c0:	910263e0 	add	x0, sp, #0x98
 20049c4:	f90047e0 	str	x0, [sp, #136]
 20049c8:	14000009 	b	20049ec <vsnprintf_internal+0x5c4>
 20049cc:	f94043e0 	ldr	x0, [sp, #128]
 20049d0:	f1000c1f 	cmp	x0, #0x3
 20049d4:	540003a0 	b.eq	2004a48 <vsnprintf_internal+0x620>  // b.none
 20049d8:	528005c2 	mov	w2, #0x2e                  	// #46
 20049dc:	38001422 	strb	w2, [x1], #1
 20049e0:	f90047e1 	str	x1, [sp, #136]
 20049e4:	91000400 	add	x0, x0, #0x1
 20049e8:	f90043e0 	str	x0, [sp, #128]
 20049ec:	f9403fe0 	ldr	x0, [sp, #120]
 20049f0:	f94043e1 	ldr	x1, [sp, #128]
 20049f4:	38616801 	ldrb	w1, [x0, x1]
 20049f8:	910257e0 	add	x0, sp, #0x95
 20049fc:	97fffceb 	bl	2003da8 <put_dec_trunc>
 2004a00:	910257e1 	add	x1, sp, #0x95
 2004a04:	cb010000 	sub	x0, x0, x1
 2004a08:	51000403 	sub	w3, w0, #0x1
 2004a0c:	f94047e2 	ldr	x2, [sp, #136]
 2004a10:	aa0203e1 	mov	x1, x2
 2004a14:	34fffdc0 	cbz	w0, 20049cc <vsnprintf_internal+0x5a4>
 2004a18:	2a0303e0 	mov	w0, w3
 2004a1c:	910257e2 	add	x2, sp, #0x95
 2004a20:	3860c842 	ldrb	w2, [x2, w0, sxtw]
 2004a24:	38001422 	strb	w2, [x1], #1
 2004a28:	51000400 	sub	w0, w0, #0x1
 2004a2c:	3100041f 	cmn	w0, #0x1
 2004a30:	54ffff61 	b.ne	2004a1c <vsnprintf_internal+0x5f4>  // b.any
 2004a34:	2a0303e0 	mov	w0, w3
 2004a38:	91000400 	add	x0, x0, #0x1
 2004a3c:	f94047e1 	ldr	x1, [sp, #136]
 2004a40:	8b000021 	add	x1, x1, x0
 2004a44:	17ffffe2 	b	20049cc <vsnprintf_internal+0x5a4>
 2004a48:	3900003f 	strb	wzr, [x1]
 2004a4c:	12197ac5 	and	w5, w22, #0xffffffbf
 2004a50:	2a1703e4 	mov	w4, w23
 2004a54:	2a1303e3 	mov	w3, w19
 2004a58:	910263e2 	add	x2, sp, #0x98
 2004a5c:	aa1803e1 	mov	x1, x24
 2004a60:	aa1503e0 	mov	x0, x21
 2004a64:	97fffe22 	bl	20042ec <string>
 2004a68:	aa0003f5 	mov	x21, x0
 2004a6c:	17ffff9c 	b	20048dc <vsnprintf_internal+0x4b4>
 2004a70:	52800426 	mov	w6, #0x21                  	// #33
 2004a74:	2a0602c6 	orr	w6, w22, w6
 2004a78:	52800213 	mov	w19, #0x10                  	// #16
 2004a7c:	17ffff91 	b	20048c0 <vsnprintf_internal+0x498>
 2004a80:	2a1503e0 	mov	w0, w21
 2004a84:	a94473fb 	ldp	x27, x28, [sp, #64]
 2004a88:	140000c0 	b	2004d88 <vsnprintf_internal+0x960>
 2004a8c:	37f8013a 	tbnz	w26, #31, 2004ab0 <vsnprintf_internal+0x688>
 2004a90:	91003f21 	add	x1, x25, #0xf
 2004a94:	aa1903e0 	mov	x0, x25
 2004a98:	927df039 	and	x25, x1, #0xfffffffffffffff8
 2004a9c:	f9400000 	ldr	x0, [x0]
 2004aa0:	f94033e1 	ldr	x1, [sp, #96]
 2004aa4:	cb0102a1 	sub	x1, x21, x1
 2004aa8:	f9000001 	str	x1, [x0]
 2004aac:	17fffe7b 	b	2004498 <vsnprintf_internal+0x70>
 2004ab0:	11002341 	add	w1, w26, #0x8
 2004ab4:	7100003f 	cmp	w1, #0x0
 2004ab8:	540000cd 	b.le	2004ad0 <vsnprintf_internal+0x6a8>
 2004abc:	91003f22 	add	x2, x25, #0xf
 2004ac0:	2a0103fa 	mov	w26, w1
 2004ac4:	aa1903e0 	mov	x0, x25
 2004ac8:	927df059 	and	x25, x2, #0xfffffffffffffff8
 2004acc:	17fffff4 	b	2004a9c <vsnprintf_internal+0x674>
 2004ad0:	f9403be0 	ldr	x0, [sp, #112]
 2004ad4:	8b3ac000 	add	x0, x0, w26, sxtw
 2004ad8:	2a0103fa 	mov	w26, w1
 2004adc:	17fffff0 	b	2004a9c <vsnprintf_internal+0x674>
 2004ae0:	11002341 	add	w1, w26, #0x8
 2004ae4:	7100003f 	cmp	w1, #0x0
 2004ae8:	540000cd 	b.le	2004b00 <vsnprintf_internal+0x6d8>
 2004aec:	91003f22 	add	x2, x25, #0xf
 2004af0:	2a0103fa 	mov	w26, w1
 2004af4:	aa1903e0 	mov	x0, x25
 2004af8:	927df059 	and	x25, x2, #0xfffffffffffffff8
 2004afc:	14000130 	b	2004fbc <vsnprintf_internal+0xb94>
 2004b00:	f9403be0 	ldr	x0, [sp, #112]
 2004b04:	8b3ac000 	add	x0, x0, w26, sxtw
 2004b08:	2a0103fa 	mov	w26, w1
 2004b0c:	1400012c 	b	2004fbc <vsnprintf_internal+0xb94>
 2004b10:	eb15031f 	cmp	x24, x21
 2004b14:	54000069 	b.ls	2004b20 <vsnprintf_internal+0x6f8>  // b.plast
 2004b18:	528004a0 	mov	w0, #0x25                  	// #37
 2004b1c:	390002a0 	strb	w0, [x21]
 2004b20:	910006b5 	add	x21, x21, #0x1
 2004b24:	17fffe5d 	b	2004498 <vsnprintf_internal+0x70>
 2004b28:	52800103 	mov	w3, #0x8                   	// #8
 2004b2c:	14000002 	b	2004b34 <vsnprintf_internal+0x70c>
 2004b30:	52800143 	mov	w3, #0xa                   	// #10
 2004b34:	7101309f 	cmp	w4, #0x4c
 2004b38:	54000180 	b.eq	2004b68 <vsnprintf_internal+0x740>  // b.none
 2004b3c:	7101b09f 	cmp	w4, #0x6c
 2004b40:	54000480 	b.eq	2004bd0 <vsnprintf_internal+0x7a8>  // b.none
 2004b44:	121a7880 	and	w0, w4, #0xffffffdf
 2004b48:	7101681f 	cmp	w0, #0x5a
 2004b4c:	540007e1 	b.ne	2004c48 <vsnprintf_internal+0x820>  // b.any
 2004b50:	37f8065a 	tbnz	w26, #31, 2004c18 <vsnprintf_internal+0x7f0>
 2004b54:	91003f21 	add	x1, x25, #0xf
 2004b58:	aa1903e0 	mov	x0, x25
 2004b5c:	927df039 	and	x25, x1, #0xfffffffffffffff8
 2004b60:	f9400002 	ldr	x2, [x0]
 2004b64:	14000006 	b	2004b7c <vsnprintf_internal+0x754>
 2004b68:	37f801ba 	tbnz	w26, #31, 2004b9c <vsnprintf_internal+0x774>
 2004b6c:	91003f21 	add	x1, x25, #0xf
 2004b70:	aa1903e0 	mov	x0, x25
 2004b74:	927df039 	and	x25, x1, #0xfffffffffffffff8
 2004b78:	f9400002 	ldr	x2, [x0]
 2004b7c:	2a1603e6 	mov	w6, w22
 2004b80:	2a1703e5 	mov	w5, w23
 2004b84:	2a1303e4 	mov	w4, w19
 2004b88:	aa1803e1 	mov	x1, x24
 2004b8c:	aa1503e0 	mov	x0, x21
 2004b90:	97fffd07 	bl	2003fac <number>
 2004b94:	aa0003f5 	mov	x21, x0
 2004b98:	17fffe40 	b	2004498 <vsnprintf_internal+0x70>
 2004b9c:	11002341 	add	w1, w26, #0x8
 2004ba0:	7100003f 	cmp	w1, #0x0
 2004ba4:	540000cd 	b.le	2004bbc <vsnprintf_internal+0x794>
 2004ba8:	91003f22 	add	x2, x25, #0xf
 2004bac:	2a0103fa 	mov	w26, w1
 2004bb0:	aa1903e0 	mov	x0, x25
 2004bb4:	927df059 	and	x25, x2, #0xfffffffffffffff8
 2004bb8:	17fffff0 	b	2004b78 <vsnprintf_internal+0x750>
 2004bbc:	f9403be0 	ldr	x0, [sp, #112]
 2004bc0:	8b3ac000 	add	x0, x0, w26, sxtw
 2004bc4:	2a0103fa 	mov	w26, w1
 2004bc8:	17ffffec 	b	2004b78 <vsnprintf_internal+0x750>
 2004bcc:	52800143 	mov	w3, #0xa                   	// #10
 2004bd0:	37f800da 	tbnz	w26, #31, 2004be8 <vsnprintf_internal+0x7c0>
 2004bd4:	91003f21 	add	x1, x25, #0xf
 2004bd8:	aa1903e0 	mov	x0, x25
 2004bdc:	927df039 	and	x25, x1, #0xfffffffffffffff8
 2004be0:	f9400002 	ldr	x2, [x0]
 2004be4:	17ffffe6 	b	2004b7c <vsnprintf_internal+0x754>
 2004be8:	11002341 	add	w1, w26, #0x8
 2004bec:	7100003f 	cmp	w1, #0x0
 2004bf0:	540000cd 	b.le	2004c08 <vsnprintf_internal+0x7e0>
 2004bf4:	91003f22 	add	x2, x25, #0xf
 2004bf8:	2a0103fa 	mov	w26, w1
 2004bfc:	aa1903e0 	mov	x0, x25
 2004c00:	927df059 	and	x25, x2, #0xfffffffffffffff8
 2004c04:	17fffff7 	b	2004be0 <vsnprintf_internal+0x7b8>
 2004c08:	f9403be0 	ldr	x0, [sp, #112]
 2004c0c:	8b3ac000 	add	x0, x0, w26, sxtw
 2004c10:	2a0103fa 	mov	w26, w1
 2004c14:	17fffff3 	b	2004be0 <vsnprintf_internal+0x7b8>
 2004c18:	11002341 	add	w1, w26, #0x8
 2004c1c:	7100003f 	cmp	w1, #0x0
 2004c20:	540000cd 	b.le	2004c38 <vsnprintf_internal+0x810>
 2004c24:	91003f22 	add	x2, x25, #0xf
 2004c28:	2a0103fa 	mov	w26, w1
 2004c2c:	aa1903e0 	mov	x0, x25
 2004c30:	927df059 	and	x25, x2, #0xfffffffffffffff8
 2004c34:	17ffffcb 	b	2004b60 <vsnprintf_internal+0x738>
 2004c38:	f9403be0 	ldr	x0, [sp, #112]
 2004c3c:	8b3ac000 	add	x0, x0, w26, sxtw
 2004c40:	2a0103fa 	mov	w26, w1
 2004c44:	17ffffc7 	b	2004b60 <vsnprintf_internal+0x738>
 2004c48:	7101d09f 	cmp	w4, #0x74
 2004c4c:	540001a0 	b.eq	2004c80 <vsnprintf_internal+0x858>  // b.none
 2004c50:	7101a09f 	cmp	w4, #0x68
 2004c54:	540003a0 	b.eq	2004cc8 <vsnprintf_internal+0x8a0>  // b.none
 2004c58:	37f8065a 	tbnz	w26, #31, 2004d20 <vsnprintf_internal+0x8f8>
 2004c5c:	91002f21 	add	x1, x25, #0xb
 2004c60:	aa1903e0 	mov	x0, x25
 2004c64:	927df039 	and	x25, x1, #0xfffffffffffffff8
 2004c68:	b9400000 	ldr	w0, [x0]
 2004c6c:	2a0003e2 	mov	w2, w0
 2004c70:	93407c00 	sxtw	x0, w0
 2004c74:	f27f02df 	tst	x22, #0x2
 2004c78:	9a821002 	csel	x2, x0, x2, ne  // ne = any
 2004c7c:	17ffffc0 	b	2004b7c <vsnprintf_internal+0x754>
 2004c80:	37f800da 	tbnz	w26, #31, 2004c98 <vsnprintf_internal+0x870>
 2004c84:	91003f21 	add	x1, x25, #0xf
 2004c88:	aa1903e0 	mov	x0, x25
 2004c8c:	927df039 	and	x25, x1, #0xfffffffffffffff8
 2004c90:	f9400002 	ldr	x2, [x0]
 2004c94:	17ffffba 	b	2004b7c <vsnprintf_internal+0x754>
 2004c98:	11002341 	add	w1, w26, #0x8
 2004c9c:	7100003f 	cmp	w1, #0x0
 2004ca0:	540000cd 	b.le	2004cb8 <vsnprintf_internal+0x890>
 2004ca4:	91003f22 	add	x2, x25, #0xf
 2004ca8:	2a0103fa 	mov	w26, w1
 2004cac:	aa1903e0 	mov	x0, x25
 2004cb0:	927df059 	and	x25, x2, #0xfffffffffffffff8
 2004cb4:	17fffff7 	b	2004c90 <vsnprintf_internal+0x868>
 2004cb8:	f9403be0 	ldr	x0, [sp, #112]
 2004cbc:	8b3ac000 	add	x0, x0, w26, sxtw
 2004cc0:	2a0103fa 	mov	w26, w1
 2004cc4:	17fffff3 	b	2004c90 <vsnprintf_internal+0x868>
 2004cc8:	37f8015a 	tbnz	w26, #31, 2004cf0 <vsnprintf_internal+0x8c8>
 2004ccc:	91002f21 	add	x1, x25, #0xb
 2004cd0:	aa1903e0 	mov	x0, x25
 2004cd4:	927df039 	and	x25, x1, #0xfffffffffffffff8
 2004cd8:	b9400000 	ldr	w0, [x0]
 2004cdc:	92403c02 	and	x2, x0, #0xffff
 2004ce0:	93403c00 	sxth	x0, w0
 2004ce4:	f27f02df 	tst	x22, #0x2
 2004ce8:	9a821002 	csel	x2, x0, x2, ne  // ne = any
 2004cec:	17ffffa4 	b	2004b7c <vsnprintf_internal+0x754>
 2004cf0:	11002341 	add	w1, w26, #0x8
 2004cf4:	7100003f 	cmp	w1, #0x0
 2004cf8:	540000cd 	b.le	2004d10 <vsnprintf_internal+0x8e8>
 2004cfc:	91002f22 	add	x2, x25, #0xb
 2004d00:	2a0103fa 	mov	w26, w1
 2004d04:	aa1903e0 	mov	x0, x25
 2004d08:	927df059 	and	x25, x2, #0xfffffffffffffff8
 2004d0c:	17fffff3 	b	2004cd8 <vsnprintf_internal+0x8b0>
 2004d10:	f9403be0 	ldr	x0, [sp, #112]
 2004d14:	8b3ac000 	add	x0, x0, w26, sxtw
 2004d18:	2a0103fa 	mov	w26, w1
 2004d1c:	17ffffef 	b	2004cd8 <vsnprintf_internal+0x8b0>
 2004d20:	11002341 	add	w1, w26, #0x8
 2004d24:	7100003f 	cmp	w1, #0x0
 2004d28:	540000cd 	b.le	2004d40 <vsnprintf_internal+0x918>
 2004d2c:	91002f22 	add	x2, x25, #0xb
 2004d30:	2a0103fa 	mov	w26, w1
 2004d34:	aa1903e0 	mov	x0, x25
 2004d38:	927df059 	and	x25, x2, #0xfffffffffffffff8
 2004d3c:	17ffffcb 	b	2004c68 <vsnprintf_internal+0x840>
 2004d40:	f9403be0 	ldr	x0, [sp, #112]
 2004d44:	8b3ac000 	add	x0, x0, w26, sxtw
 2004d48:	2a0103fa 	mov	w26, w1
 2004d4c:	17ffffc7 	b	2004c68 <vsnprintf_internal+0x840>
 2004d50:	aa0203f5 	mov	x21, x2
 2004d54:	17fffdd1 	b	2004498 <vsnprintf_internal+0x70>
 2004d58:	a94473fb 	ldp	x27, x28, [sp, #64]
 2004d5c:	f94037e0 	ldr	x0, [sp, #104]
 2004d60:	b4000100 	cbz	x0, 2004d80 <vsnprintf_internal+0x958>
 2004d64:	eb15031f 	cmp	x24, x21
 2004d68:	54000049 	b.ls	2004d70 <vsnprintf_internal+0x948>  // b.plast
 2004d6c:	390002bf 	strb	wzr, [x21]
 2004d70:	910006a0 	add	x0, x21, #0x1
 2004d74:	eb00031f 	cmp	x24, x0
 2004d78:	54000042 	b.cs	2004d80 <vsnprintf_internal+0x958>  // b.hs, b.nlast
 2004d7c:	381ff31f 	sturb	wzr, [x24, #-1]
 2004d80:	b94063e0 	ldr	w0, [sp, #96]
 2004d84:	4b0002a0 	sub	w0, w21, w0
 2004d88:	a9415bf5 	ldp	x21, x22, [sp, #16]
 2004d8c:	a94263f7 	ldp	x23, x24, [sp, #32]
 2004d90:	a9436bf9 	ldp	x25, x26, [sp, #48]
 2004d94:	f9402bfe 	ldr	x30, [sp, #80]
 2004d98:	a8cc53f3 	ldp	x19, x20, [sp], #192
 2004d9c:	d65f03c0 	ret
 2004da0:	f94033f5 	ldr	x21, [sp, #96]
 2004da4:	17ffffee 	b	2004d5c <vsnprintf_internal+0x934>
 2004da8:	71018c1f 	cmp	w0, #0x63
 2004dac:	54ffc720 	b.eq	2004690 <vsnprintf_internal+0x268>  // b.none
 2004db0:	540000c9 	b.ls	2004dc8 <vsnprintf_internal+0x9a0>  // b.plast
 2004db4:	7101901f 	cmp	w0, #0x64
 2004db8:	54000760 	b.eq	2004ea4 <vsnprintf_internal+0xa7c>  // b.none
 2004dbc:	7101a41f 	cmp	w0, #0x69
 2004dc0:	54000720 	b.eq	2004ea4 <vsnprintf_internal+0xa7c>  // b.none
 2004dc4:	14000005 	b	2004dd8 <vsnprintf_internal+0x9b0>
 2004dc8:	7100941f 	cmp	w0, #0x25
 2004dcc:	54ffea20 	b.eq	2004b10 <vsnprintf_internal+0x6e8>  // b.none
 2004dd0:	7101601f 	cmp	w0, #0x58
 2004dd4:	54000600 	b.eq	2004e94 <vsnprintf_internal+0xa6c>  // b.none
 2004dd8:	eb15031f 	cmp	x24, x21
 2004ddc:	54000069 	b.ls	2004de8 <vsnprintf_internal+0x9c0>  // b.plast
 2004de0:	528004a0 	mov	w0, #0x25                  	// #37
 2004de4:	390002a0 	strb	w0, [x21]
 2004de8:	910006a0 	add	x0, x21, #0x1
 2004dec:	39400281 	ldrb	w1, [x20]
 2004df0:	350009a1 	cbnz	w1, 2004f24 <vsnprintf_internal+0xafc>
 2004df4:	d1000694 	sub	x20, x20, #0x1
 2004df8:	aa0003f5 	mov	x21, x0
 2004dfc:	17fffda7 	b	2004498 <vsnprintf_internal+0x70>
 2004e00:	7101bc1f 	cmp	w0, #0x6f
 2004e04:	54ffe920 	b.eq	2004b28 <vsnprintf_internal+0x700>  // b.none
 2004e08:	7101c01f 	cmp	w0, #0x70
 2004e0c:	54fffe61 	b.ne	2004dd8 <vsnprintf_internal+0x9b0>  // b.any
 2004e10:	37ffcdda 	tbnz	w26, #31, 20047c8 <vsnprintf_internal+0x3a0>
 2004e14:	91003f21 	add	x1, x25, #0xf
 2004e18:	aa1903e0 	mov	x0, x25
 2004e1c:	927df039 	and	x25, x1, #0xfffffffffffffff8
 2004e20:	f9400000 	ldr	x0, [x0]
 2004e24:	f9003fe0 	str	x0, [sp, #120]
 2004e28:	aa0003e2 	mov	x2, x0
 2004e2c:	39400680 	ldrb	w0, [x20, #1]
 2004e30:	7101841f 	cmp	w0, #0x61
 2004e34:	54ffcee0 	b.eq	2004810 <vsnprintf_internal+0x3e8>  // b.none
 2004e38:	7101841f 	cmp	w0, #0x61
 2004e3c:	54ffcde8 	b.hi	20047f8 <vsnprintf_internal+0x3d0>  // b.pmore
 2004e40:	7101241f 	cmp	w0, #0x49
 2004e44:	54ffd2c0 	b.eq	200489c <vsnprintf_internal+0x474>  // b.none
 2004e48:	7101341f 	cmp	w0, #0x4d
 2004e4c:	54ffd341 	b.ne	20048b4 <vsnprintf_internal+0x48c>  // b.any
 2004e50:	d2800000 	mov	x0, #0x0                   	// #0
 2004e54:	910263e2 	add	x2, sp, #0x98
 2004e58:	b0000003 	adrp	x3, 2005000 <vscnprintf+0x18>
 2004e5c:	9132c063 	add	x3, x3, #0xcb0
 2004e60:	121a02c5 	and	w5, w22, #0x40
 2004e64:	52800746 	mov	w6, #0x3a                  	// #58
 2004e68:	17fffe75 	b	200483c <vsnprintf_internal+0x414>
 2004e6c:	aa0103f4 	mov	x20, x1
 2004e70:	12800004 	mov	w4, #0xffffffff            	// #-1
 2004e74:	14000043 	b	2004f80 <vsnprintf_internal+0xb58>
 2004e78:	aa0103f4 	mov	x20, x1
 2004e7c:	12800004 	mov	w4, #0xffffffff            	// #-1
 2004e80:	14000040 	b	2004f80 <vsnprintf_internal+0xb58>
 2004e84:	7100941f 	cmp	w0, #0x25
 2004e88:	54ffe440 	b.eq	2004b10 <vsnprintf_internal+0x6e8>  // b.none
 2004e8c:	7101601f 	cmp	w0, #0x58
 2004e90:	54fffa41 	b.ne	2004dd8 <vsnprintf_internal+0x9b0>  // b.any
 2004e94:	52800203 	mov	w3, #0x10                  	// #16
 2004e98:	17ffff27 	b	2004b34 <vsnprintf_internal+0x70c>
 2004e9c:	7101901f 	cmp	w0, #0x64
 2004ea0:	540003a1 	b.ne	2004f14 <vsnprintf_internal+0xaec>  // b.any
 2004ea4:	321f02d6 	orr	w22, w22, #0x2
 2004ea8:	52800143 	mov	w3, #0xa                   	// #10
 2004eac:	17ffff22 	b	2004b34 <vsnprintf_internal+0x70c>
 2004eb0:	7101d41f 	cmp	w0, #0x75
 2004eb4:	54ffe3e0 	b.eq	2004b30 <vsnprintf_internal+0x708>  // b.none
 2004eb8:	540000c9 	b.ls	2004ed0 <vsnprintf_internal+0xaa8>  // b.plast
 2004ebc:	7101e01f 	cmp	w0, #0x78
 2004ec0:	540002a1 	b.ne	2004f14 <vsnprintf_internal+0xaec>  // b.any
 2004ec4:	321b02d6 	orr	w22, w22, #0x20
 2004ec8:	52800203 	mov	w3, #0x10                  	// #16
 2004ecc:	17ffff1a 	b	2004b34 <vsnprintf_internal+0x70c>
 2004ed0:	7101c01f 	cmp	w0, #0x70
 2004ed4:	54fff9e0 	b.eq	2004e10 <vsnprintf_internal+0x9e8>  // b.none
 2004ed8:	7101cc1f 	cmp	w0, #0x73
 2004edc:	540001c1 	b.ne	2004f14 <vsnprintf_internal+0xaec>  // b.any
 2004ee0:	37ffc5da 	tbnz	w26, #31, 2004798 <vsnprintf_internal+0x370>
 2004ee4:	91003f21 	add	x1, x25, #0xf
 2004ee8:	aa1903e0 	mov	x0, x25
 2004eec:	927df039 	and	x25, x1, #0xfffffffffffffff8
 2004ef0:	2a1603e5 	mov	w5, w22
 2004ef4:	2a1703e4 	mov	w4, w23
 2004ef8:	2a1303e3 	mov	w3, w19
 2004efc:	f9400002 	ldr	x2, [x0]
 2004f00:	aa1803e1 	mov	x1, x24
 2004f04:	aa1503e0 	mov	x0, x21
 2004f08:	97fffcf9 	bl	20042ec <string>
 2004f0c:	aa0003f5 	mov	x21, x0
 2004f10:	17fffd62 	b	2004498 <vsnprintf_internal+0x70>
 2004f14:	eb15031f 	cmp	x24, x21
 2004f18:	54fff648 	b.hi	2004de0 <vsnprintf_internal+0x9b8>  // b.pmore
 2004f1c:	910006a0 	add	x0, x21, #0x1
 2004f20:	39400281 	ldrb	w1, [x20]
 2004f24:	eb00031f 	cmp	x24, x0
 2004f28:	54000049 	b.ls	2004f30 <vsnprintf_internal+0xb08>  // b.plast
 2004f2c:	390006a1 	strb	w1, [x21, #1]
 2004f30:	91000ab5 	add	x21, x21, #0x2
 2004f34:	17fffd59 	b	2004498 <vsnprintf_internal+0x70>
 2004f38:	12800013 	mov	w19, #0xffffffff            	// #-1
 2004f3c:	7100a81f 	cmp	w0, #0x2a
 2004f40:	54ffb040 	b.eq	2004548 <vsnprintf_internal+0x120>  // b.none
 2004f44:	39400020 	ldrb	w0, [x1]
 2004f48:	12800017 	mov	w23, #0xffffffff            	// #-1
 2004f4c:	7100b81f 	cmp	w0, #0x2e
 2004f50:	54ffb280 	b.eq	20045a0 <vsnprintf_internal+0x178>  // b.none
 2004f54:	39400022 	ldrb	w2, [x1]
 2004f58:	51013040 	sub	w0, w2, #0x4c
 2004f5c:	12001c00 	and	w0, w0, #0xff
 2004f60:	7100b81f 	cmp	w0, #0x2e
 2004f64:	54fff848 	b.hi	2004e6c <vsnprintf_internal+0xa44>  // b.pmore
 2004f68:	9ac02780 	lsr	x0, x28, x0
 2004f6c:	3607f860 	tbz	w0, #0, 2004e78 <vsnprintf_internal+0xa50>
 2004f70:	2a0203e4 	mov	w4, w2
 2004f74:	91000434 	add	x20, x1, #0x1
 2004f78:	7101b05f 	cmp	w2, #0x6c
 2004f7c:	54ffb680 	b.eq	200464c <vsnprintf_internal+0x224>  // b.none
 2004f80:	39400280 	ldrb	w0, [x20]
 2004f84:	7101bc1f 	cmp	w0, #0x6f
 2004f88:	54ffdd00 	b.eq	2004b28 <vsnprintf_internal+0x700>  // b.none
 2004f8c:	54fff928 	b.hi	2004eb0 <vsnprintf_internal+0xa88>  // b.pmore
 2004f90:	71018c1f 	cmp	w0, #0x63
 2004f94:	54ffb7e0 	b.eq	2004690 <vsnprintf_internal+0x268>  // b.none
 2004f98:	54fff769 	b.ls	2004e84 <vsnprintf_internal+0xa5c>  // b.plast
 2004f9c:	7101a41f 	cmp	w0, #0x69
 2004fa0:	54fff820 	b.eq	2004ea4 <vsnprintf_internal+0xa7c>  // b.none
 2004fa4:	7101b81f 	cmp	w0, #0x6e
 2004fa8:	54fff7a1 	b.ne	2004e9c <vsnprintf_internal+0xa74>  // b.any
 2004fac:	37ffd9ba 	tbnz	w26, #31, 2004ae0 <vsnprintf_internal+0x6b8>
 2004fb0:	91003f21 	add	x1, x25, #0xf
 2004fb4:	aa1903e0 	mov	x0, x25
 2004fb8:	927df039 	and	x25, x1, #0xfffffffffffffff8
 2004fbc:	f9400000 	ldr	x0, [x0]
 2004fc0:	f94033e1 	ldr	x1, [sp, #96]
 2004fc4:	cb0102a1 	sub	x1, x21, x1
 2004fc8:	b9000001 	str	w1, [x0]
 2004fcc:	17fffd33 	b	2004498 <vsnprintf_internal+0x70>
 2004fd0:	5100c002 	sub	w2, w0, #0x30
 2004fd4:	12001c42 	and	w2, w2, #0xff
 2004fd8:	7100245f 	cmp	w2, #0x9
 2004fdc:	54ffaa29 	b.ls	2004520 <vsnprintf_internal+0xf8>  // b.plast
 2004fe0:	12800013 	mov	w19, #0xffffffff            	// #-1
 2004fe4:	17ffffd8 	b	2004f44 <vsnprintf_internal+0xb1c>

0000000002004fe8 <vscnprintf>:
 2004fe8:	a9bb7bf3 	stp	x19, x30, [sp, #-80]!
 2004fec:	aa0103f3 	mov	x19, x1
 2004ff0:	f9400064 	ldr	x4, [x3]
 2004ff4:	f9001be4 	str	x4, [sp, #48]
 2004ff8:	f9400464 	ldr	x4, [x3, #8]
 2004ffc:	f9001fe4 	str	x4, [sp, #56]
 2005000:	f9400864 	ldr	x4, [x3, #16]
 2005004:	f90023e4 	str	x4, [sp, #64]
 2005008:	f9400c63 	ldr	x3, [x3, #24]
 200500c:	f90027e3 	str	x3, [sp, #72]
 2005010:	a94317e4 	ldp	x4, x5, [sp, #48]
 2005014:	a90117e4 	stp	x4, x5, [sp, #16]
 2005018:	a94417e4 	ldp	x4, x5, [sp, #64]
 200501c:	a90217e4 	stp	x4, x5, [sp, #32]
 2005020:	910043e3 	add	x3, sp, #0x10
 2005024:	97fffd01 	bl	2004428 <vsnprintf_internal>
 2005028:	eb20c27f 	cmp	x19, w0, sxtw
 200502c:	54000069 	b.ls	2005038 <vscnprintf+0x50>  // b.plast
 2005030:	a8c57bf3 	ldp	x19, x30, [sp], #80
 2005034:	d65f03c0 	ret
 2005038:	51000660 	sub	w0, w19, #0x1
 200503c:	f100027f 	cmp	x19, #0x0
 2005040:	1a9f1000 	csel	w0, w0, wzr, ne  // ne = any
 2005044:	17fffffb 	b	2005030 <vscnprintf+0x48>

0000000002005048 <snprintf>:
 2005048:	d10483ff 	sub	sp, sp, #0x120
 200504c:	f90003fe 	str	x30, [sp]
 2005050:	f9007fe3 	str	x3, [sp, #248]
 2005054:	f90083e4 	str	x4, [sp, #256]
 2005058:	f90087e5 	str	x5, [sp, #264]
 200505c:	f9008be6 	str	x6, [sp, #272]
 2005060:	f9008fe7 	str	x7, [sp, #280]
 2005064:	3d801fe0 	str	q0, [sp, #112]
 2005068:	3d8023e1 	str	q1, [sp, #128]
 200506c:	3d8027e2 	str	q2, [sp, #144]
 2005070:	3d802be3 	str	q3, [sp, #160]
 2005074:	3d802fe4 	str	q4, [sp, #176]
 2005078:	3d8033e5 	str	q5, [sp, #192]
 200507c:	3d8037e6 	str	q6, [sp, #208]
 2005080:	3d803be7 	str	q7, [sp, #224]
 2005084:	910483e3 	add	x3, sp, #0x120
 2005088:	f9002be3 	str	x3, [sp, #80]
 200508c:	f9002fe3 	str	x3, [sp, #88]
 2005090:	9103c3e3 	add	x3, sp, #0xf0
 2005094:	f90033e3 	str	x3, [sp, #96]
 2005098:	128004e3 	mov	w3, #0xffffffd8            	// #-40
 200509c:	b9006be3 	str	w3, [sp, #104]
 20050a0:	12800fe3 	mov	w3, #0xffffff80            	// #-128
 20050a4:	b9006fe3 	str	w3, [sp, #108]
 20050a8:	a9451fe6 	ldp	x6, x7, [sp, #80]
 20050ac:	a9031fe6 	stp	x6, x7, [sp, #48]
 20050b0:	a94617e4 	ldp	x4, x5, [sp, #96]
 20050b4:	a90417e4 	stp	x4, x5, [sp, #64]
 20050b8:	a9011fe6 	stp	x6, x7, [sp, #16]
 20050bc:	a90217e4 	stp	x4, x5, [sp, #32]
 20050c0:	910043e3 	add	x3, sp, #0x10
 20050c4:	97fffcd9 	bl	2004428 <vsnprintf_internal>
 20050c8:	f94003fe 	ldr	x30, [sp]
 20050cc:	910483ff 	add	sp, sp, #0x120
 20050d0:	d65f03c0 	ret

00000000020050d4 <vsprintf>:
 20050d4:	f81d0ffe 	str	x30, [sp, #-48]!
 20050d8:	f9400043 	ldr	x3, [x2]
 20050dc:	f9000be3 	str	x3, [sp, #16]
 20050e0:	f9400443 	ldr	x3, [x2, #8]
 20050e4:	f9000fe3 	str	x3, [sp, #24]
 20050e8:	f9400843 	ldr	x3, [x2, #16]
 20050ec:	f90013e3 	str	x3, [sp, #32]
 20050f0:	f9400c42 	ldr	x2, [x2, #24]
 20050f4:	f90017e2 	str	x2, [sp, #40]
 20050f8:	910043e3 	add	x3, sp, #0x10
 20050fc:	aa0103e2 	mov	x2, x1
 2005100:	b2407be1 	mov	x1, #0x7fffffff            	// #2147483647
 2005104:	97fffcc9 	bl	2004428 <vsnprintf_internal>
 2005108:	f84307fe 	ldr	x30, [sp], #48
 200510c:	d65f03c0 	ret

0000000002005110 <printf>:
 2005110:	d11443ff 	sub	sp, sp, #0x510
 2005114:	a9007bf3 	stp	x19, x30, [sp]
 2005118:	f9026fe1 	str	x1, [sp, #1240]
 200511c:	f90273e2 	str	x2, [sp, #1248]
 2005120:	f90277e3 	str	x3, [sp, #1256]
 2005124:	f9027be4 	str	x4, [sp, #1264]
 2005128:	f9027fe5 	str	x5, [sp, #1272]
 200512c:	f90283e6 	str	x6, [sp, #1280]
 2005130:	f90287e7 	str	x7, [sp, #1288]
 2005134:	911003e1 	add	x1, sp, #0x400
 2005138:	3d801420 	str	q0, [x1, #80]
 200513c:	3d801821 	str	q1, [x1, #96]
 2005140:	3d801c22 	str	q2, [x1, #112]
 2005144:	3d802023 	str	q3, [x1, #128]
 2005148:	3d802424 	str	q4, [x1, #144]
 200514c:	3d802825 	str	q5, [x1, #160]
 2005150:	3d802c26 	str	q6, [x1, #176]
 2005154:	3d803027 	str	q7, [x1, #192]
 2005158:	911443e1 	add	x1, sp, #0x510
 200515c:	f9021be1 	str	x1, [sp, #1072]
 2005160:	f9021fe1 	str	x1, [sp, #1080]
 2005164:	911343e1 	add	x1, sp, #0x4d0
 2005168:	f90223e1 	str	x1, [sp, #1088]
 200516c:	128006e1 	mov	w1, #0xffffffc8            	// #-56
 2005170:	b9044be1 	str	w1, [sp, #1096]
 2005174:	12800fe1 	mov	w1, #0xffffff80            	// #-128
 2005178:	b9044fe1 	str	w1, [sp, #1100]
 200517c:	911003e1 	add	x1, sp, #0x400
 2005180:	a9430c22 	ldp	x2, x3, [x1, #48]
 2005184:	a9010fe2 	stp	x2, x3, [sp, #16]
 2005188:	a9440c22 	ldp	x2, x3, [x1, #64]
 200518c:	a9020fe2 	stp	x2, x3, [sp, #32]
 2005190:	910043e3 	add	x3, sp, #0x10
 2005194:	aa0003e2 	mov	x2, x0
 2005198:	d2808001 	mov	x1, #0x400                 	// #1024
 200519c:	9100c3e0 	add	x0, sp, #0x30
 20051a0:	97ffff92 	bl	2004fe8 <vscnprintf>
 20051a4:	2a0003f3 	mov	w19, w0
 20051a8:	350000a0 	cbnz	w0, 20051bc <printf+0xac>
 20051ac:	2a1303e0 	mov	w0, w19
 20051b0:	a9407bf3 	ldp	x19, x30, [sp]
 20051b4:	911443ff 	add	sp, sp, #0x510
 20051b8:	d65f03c0 	ret
 20051bc:	9100c3e0 	add	x0, sp, #0x30
 20051c0:	97fff88d 	bl	20033f4 <puts>
 20051c4:	17fffffa 	b	20051ac <printf+0x9c>

00000000020051c8 <vprintf>:
 20051c8:	d110c3ff 	sub	sp, sp, #0x430
 20051cc:	a9007bf3 	stp	x19, x30, [sp]
 20051d0:	f9400022 	ldr	x2, [x1]
 20051d4:	f9000be2 	str	x2, [sp, #16]
 20051d8:	f9400422 	ldr	x2, [x1, #8]
 20051dc:	f9000fe2 	str	x2, [sp, #24]
 20051e0:	f9400822 	ldr	x2, [x1, #16]
 20051e4:	f90013e2 	str	x2, [sp, #32]
 20051e8:	f9400c21 	ldr	x1, [x1, #24]
 20051ec:	f90017e1 	str	x1, [sp, #40]
 20051f0:	910043e3 	add	x3, sp, #0x10
 20051f4:	aa0003e2 	mov	x2, x0
 20051f8:	d2808001 	mov	x1, #0x400                 	// #1024
 20051fc:	9100c3e0 	add	x0, sp, #0x30
 2005200:	97ffff7a 	bl	2004fe8 <vscnprintf>
 2005204:	2a0003f3 	mov	w19, w0
 2005208:	350000a0 	cbnz	w0, 200521c <vprintf+0x54>
 200520c:	2a1303e0 	mov	w0, w19
 2005210:	a9407bf3 	ldp	x19, x30, [sp]
 2005214:	9110c3ff 	add	sp, sp, #0x430
 2005218:	d65f03c0 	ret
 200521c:	9100c3e0 	add	x0, sp, #0x30
 2005220:	97fff875 	bl	20033f4 <puts>
 2005224:	17fffffa 	b	200520c <vprintf+0x44>
